# b/190148312: Populate with correct list of ABI symbols
LIBBINDER {
  global:
    getBinderKernelReferences;
    kDefaultDriver;
    _ZN7android10AllocationC1ERKNS_2spINS_12MemoryDealerEEERKNS1_INS_11IMemoryHeapEEElm;
    _ZN7android10AllocationC2ERKNS_2spINS_12MemoryDealerEEERKNS1_INS_11IMemoryHeapEEElm;
    _ZN7android10AllocationD0Ev;
    _ZN7android10AllocationD1Ev;
    _ZN7android10AllocationD2Ev;
    _ZN7android10IInterface8asBinderEPKS0_;
    _ZN7android10IInterface8asBinderERKNS_2spIS0_EE;
    _ZN7android10IInterfaceC2Ev;
    _ZN7android10IInterfaceD0Ev;
    _ZN7android10IInterfaceD1Ev;
    _ZN7android10IInterfaceD2Ev;
    _ZN7android10MemoryBaseC1ERKNS_2spINS_11IMemoryHeapEEElm;
    _ZN7android10MemoryBaseC2ERKNS_2spINS_11IMemoryHeapEEElm;
    _ZN7android10MemoryBaseD0Ev;
    _ZN7android10MemoryBaseD1Ev;
    _ZN7android10MemoryBaseD2Ev;
    _ZN7android10RpcAddress14readFromParcelERKNS_6ParcelE;
    _ZN7android10RpcAddress15fromRawEmbeddedEPKNS_14RpcWireAddressE;
    _ZN7android10RpcAddress4zeroEv;
    _ZN7android10RpcAddress6uniqueEv;
    _ZN7android10RpcAddressC1Ev;
    _ZN7android10RpcAddressC2Ev;
    _ZN7android10RpcAddressD1Ev;
    _ZN7android10RpcAddressD2Ev;
    _ZN7android10RpcSession12setForServerERKNS_2wpINS_9RpcServerEEEi;
    _ZN7android10RpcSession13getRootObjectEv;
    _ZN7android10RpcSession13sendDecStrongERKNS_10RpcAddressE;
    _ZN7android10RpcSession15setupInetClientEPKcj;
    _ZN7android10RpcSession15terminateLockedEv;
    _ZN7android10RpcSession16setupVsockClientEjj;
    _ZN7android10RpcSession17setupSocketClientERKNS_16RpcSocketAddressE;
    _ZN7android10RpcSession19addClientConnectionENS_4base14unique_fd_implINS1_13DefaultCloserEEE;
    _ZN7android10RpcSession19ExclusiveConnection14findConnectionEiPNS_2spINS0_13RpcConnectionEEES5_RNSt3__16vectorIS4_NS6_9allocatorIS4_EEEEm;
    _ZN7android10RpcSession19ExclusiveConnectionC1ERKNS_2spIS0_EENS0_13ConnectionUseE;
    _ZN7android10RpcSession19ExclusiveConnectionC2ERKNS_2spIS0_EENS0_13ConnectionUseE;
    _ZN7android10RpcSession19ExclusiveConnectionD1Ev;
    _ZN7android10RpcSession19ExclusiveConnectionD2Ev;
    _ZN7android10RpcSession19getRemoteMaxThreadsEPm;
    _ZN7android10RpcSession20setupOneSocketClientERKNS_16RpcSocketAddressEi;
    _ZN7android10RpcSession21setupUnixDomainClientEPKc;
    _ZN7android10RpcSession22addNullDebuggingClientEv;
    _ZN7android10RpcSession22removeServerConnectionERKNS_2spINS0_13RpcConnectionEEE;
    _ZN7android10RpcSession24assignServerToThisThreadENS_4base14unique_fd_implINS1_13DefaultCloserEEE;
    _ZN7android10RpcSession4joinENS_4base14unique_fd_implINS1_13DefaultCloserEEE;
    _ZN7android10RpcSession4makeEv;
    _ZN7android10RpcSession6readIdEv;
    _ZN7android10RpcSession6serverEv;
    _ZN7android10RpcSession7preJoinENSt3__16threadE;
    _ZN7android10RpcSession8transactERKNS_10RpcAddressEjRKNS_6ParcelEPS4_j;
    _ZN7android10RpcSessionC1Ev;
    _ZN7android10RpcSessionC2Ev;
    _ZN7android10RpcSessionD0Ev;
    _ZN7android10RpcSessionD1Ev;
    _ZN7android10RpcSessionD2Ev;
    _ZN7android10TextOutputC2Ev;
    _ZN7android10TextOutputD0Ev;
    _ZN7android10TextOutputD1Ev;
    _ZN7android10TextOutputD2Ev;
    _ZN7android10zeroMemoryEPhm;
    _ZN7android11BnInterfaceINS_11IMemoryHeapEE10onAsBinderEv;
    _ZN7android11BnInterfaceINS_14IShellCallbackEE10onAsBinderEv;
    _ZN7android11BnInterfaceINS_15IResultReceiverEE10onAsBinderEv;
    _ZN7android11BnInterfaceINS_21IPermissionControllerEE10onAsBinderEv;
    _ZN7android11BnInterfaceINS_2os15IClientCallbackEE10onAsBinderEv;
    _ZN7android11BnInterfaceINS_2os15IServiceManagerEE10onAsBinderEv;
    _ZN7android11BnInterfaceINS_2os16IServiceCallbackEE10onAsBinderEv;
    _ZN7android11BnInterfaceINS_7content2pm21IPackageManagerNativeEE10onAsBinderEv;
    _ZN7android11BnInterfaceINS_7content2pm22IPackageChangeObserverEE10onAsBinderEv;
    _ZN7android11BnInterfaceINS_7IMemoryEE10onAsBinderEv;
    _ZN7android11IMemoryHeap10descriptorE;
    _ZN7android11IMemoryHeap11asInterfaceERKNS_2spINS_7IBinderEEE;
    _ZN7android11IMemoryHeap12default_implE;
    _ZN7android11IMemoryHeap14getDefaultImplEv;
    _ZN7android11IMemoryHeap14setDefaultImplENSt3__110unique_ptrIS0_NS1_14default_deleteIS0_EEEE;
    _ZN7android11IMemoryHeapC2Ev;
    _ZN7android11IMemoryHeapD0Ev;
    _ZN7android11IMemoryHeapD1Ev;
    _ZN7android11IMemoryHeapD2Ev;
    _ZN7android12BnMemoryHeap10onTransactEjRKNS_6ParcelEPS1_j;
    _ZN7android12BnMemoryHeapC2Ev;
    _ZN7android12BnMemoryHeapD0Ev;
    _ZN7android12BnMemoryHeapD1Ev;
    _ZN7android12BnMemoryHeapD2Ev;
    _ZN7android12BpMemoryHeapC1ERKNS_2spINS_7IBinderEEE;
    _ZN7android12BpMemoryHeapC2ERKNS_2spINS_7IBinderEEE;
    _ZN7android12BpMemoryHeapD0Ev;
    _ZN7android12BpMemoryHeapD1Ev;
    _ZN7android12BpMemoryHeapD2Ev;
    _ZN7android12gTextBuffersE;
    _ZN7android12MemoryDealer10deallocateEm;
    _ZN7android12MemoryDealer22getAllocationAlignmentEv;
    _ZN7android12MemoryDealer8allocateEm;
    _ZN7android12MemoryDealerC1EmPKcj;
    _ZN7android12MemoryDealerC2EmPKcj;
    _ZN7android12MemoryDealerD0Ev;
    _ZN7android12MemoryDealerD1Ev;
    _ZN7android12MemoryDealerD2Ev;
    _ZN7android12printHexDataEiPKvmmimbPFvPvPKcES2_;
    _ZN7android12ProcessState10selfOrNullEv;
    _ZN7android12ProcessState13expungeHandleEiPNS_7IBinderE;
    _ZN7android12ProcessState13getDriverNameEv;
    _ZN7android12ProcessState14initWithDriverEPKc;
    _ZN7android12ProcessState15startThreadPoolEv;
    _ZN7android12ProcessState16getContextObjectERKNS_2spINS_7IBinderEEE;
    _ZN7android12ProcessState17spawnPooledThreadEb;
    _ZN7android12ProcessState18giveThreadPoolNameEv;
    _ZN7android12ProcessState18lookupHandleLockedEi;
    _ZN7android12ProcessState18setCallRestrictionENS0_15CallRestrictionE;
    _ZN7android12ProcessState19getKernelReferencesEmPm;
    _ZN7android12ProcessState20becomeContextManagerEv;
    _ZN7android12ProcessState20makeBinderThreadNameEv;
    _ZN7android12ProcessState23getStrongProxyForHandleEi;
    _ZN7android12ProcessState24getStrongRefCountForNodeERKNS_2spINS_8BpBinderEEE;
    _ZN7android12ProcessState25enableOnewaySpamDetectionEb;
    _ZN7android12ProcessState27setThreadPoolMaxThreadCountEm;
    _ZN7android12ProcessState4initEPKcb;
    _ZN7android12ProcessState4selfEv;
    _ZN7android12ProcessStateC1EPKc;
    _ZN7android12ProcessStateC2EPKc;
    _ZN7android12ProcessStateD0Ev;
    _ZN7android12ProcessStateD1Ev;
    _ZN7android12ProcessStateD2Ev;
    _ZN7android13printTypeCodeEjPFvPvPKcES0_;
    _ZN7android14IPCThreadState10freeBufferEPNS_6ParcelEPKhmPKym;
    _ZN7android14IPCThreadState10selfOrNullEv;
    _ZN7android14IPCThreadState11clearCallerEv;
    _ZN7android14IPCThreadState11stopProcessEb;
    _ZN7android14IPCThreadState12setupPollingEPi;
    _ZN7android14IPCThreadState13decWeakHandleEi;
    _ZN7android14IPCThreadState13expungeHandleEiPNS_7IBinderE;
    _ZN7android14IPCThreadState13flushCommandsEv;
    _ZN7android14IPCThreadState13flushIfNeededEv;
    _ZN7android14IPCThreadState13incWeakHandleEiPNS_8BpBinderE;
    _ZN7android14IPCThreadState14clearLastErrorEv;
    _ZN7android14IPCThreadState14executeCommandEi;
    _ZN7android14IPCThreadState14joinThreadPoolEb;
    _ZN7android14IPCThreadState14talkWithDriverEb;
    _ZN7android14IPCThreadState15decStrongHandleEi;
    _ZN7android14IPCThreadState15incStrongHandleEiPNS_8BpBinderE;
    _ZN7android14IPCThreadState15waitForResponseEPNS_6ParcelEPi;
    _ZN7android14IPCThreadState16threadDestructorEPv;
    _ZN7android14IPCThreadState18setCallRestrictionENS_12ProcessState15CallRestrictionE;
    _ZN7android14IPCThreadState19setStrictModePolicyEi;
    _ZN7android14IPCThreadState19setTheContextObjectERKNS_2spINS_7BBinderEEE;
    _ZN7android14IPCThreadState20clearCallingIdentityEv;
    _ZN7android14IPCThreadState20getAndExecuteCommandEv;
    _ZN7android14IPCThreadState20getProcessFreezeInfoEiPbS1_;
    _ZN7android14IPCThreadState20getProcessFreezeInfoEiPjS1_;
    _ZN7android14IPCThreadState20handlePolledCommandsEv;
    _ZN7android14IPCThreadState20processPendingDerefsEv;
    _ZN7android14IPCThreadState20writeTransactionDataEijijRKNS_6ParcelEPi;
    _ZN7android14IPCThreadState22attemptIncStrongHandleEi;
    _ZN7android14IPCThreadState22clearCallingWorkSourceEv;
    _ZN7android14IPCThreadState22clearDeathNotificationEiPNS_8BpBinderE;
    _ZN7android14IPCThreadState22processPostWriteDerefsEv;
    _ZN7android14IPCThreadState22restoreCallingIdentityEl;
    _ZN7android14IPCThreadState23setCallingWorkSourceUidEj;
    _ZN7android14IPCThreadState24clearPropagateWorkSourceEv;
    _ZN7android14IPCThreadState24requestDeathNotificationEiPNS_8BpBinderE;
    _ZN7android14IPCThreadState24restoreCallingWorkSourceEl;
    _ZN7android14IPCThreadState25blockUntilThreadAvailableEv;
    _ZN7android14IPCThreadState27disableBackgroundSchedulingEb;
    _ZN7android14IPCThreadState28backgroundSchedulingDisabledEv;
    _ZN7android14IPCThreadState29setLastTransactionBinderFlagsEi;
    _ZN7android14IPCThreadState41setCallingWorkSourceUidWithoutPropagationEj;
    _ZN7android14IPCThreadState4selfEv;
    _ZN7android14IPCThreadState6freezeEibj;
    _ZN7android14IPCThreadState7processEv;
    _ZN7android14IPCThreadState8shutdownEv;
    _ZN7android14IPCThreadState8transactEijRKNS_6ParcelEPS1_j;
    _ZN7android14IPCThreadState9sendReplyERKNS_6ParcelEj;
    _ZN7android14IPCThreadStateC1Ev;
    _ZN7android14IPCThreadStateC2Ev;
    _ZN7android14IPCThreadStateD1Ev;
    _ZN7android14IPCThreadStateD2Ev;
    _ZN7android14IShellCallback10descriptorE;
    _ZN7android14IShellCallback11asInterfaceERKNS_2spINS_7IBinderEEE;
    _ZN7android14IShellCallback12default_implE;
    _ZN7android14IShellCallback14getDefaultImplEv;
    _ZN7android14IShellCallback14setDefaultImplENSt3__110unique_ptrIS0_NS1_14default_deleteIS0_EEEE;
    _ZN7android14IShellCallbackC2Ev;
    _ZN7android14IShellCallbackD0Ev;
    _ZN7android14IShellCallbackD1Ev;
    _ZN7android14IShellCallbackD2Ev;
    _ZN7android14MemoryHeapBase4initEiPvmiPKc;
    _ZN7android14MemoryHeapBase5mapfdEibml;
    _ZN7android14MemoryHeapBase7disposeEv;
    _ZN7android14MemoryHeapBaseC1Eimjl;
    _ZN7android14MemoryHeapBaseC1EmjPKc;
    _ZN7android14MemoryHeapBaseC1EPKcmj;
    _ZN7android14MemoryHeapBaseC1Ev;
    _ZN7android14MemoryHeapBaseC2Eimjl;
    _ZN7android14MemoryHeapBaseC2EmjPKc;
    _ZN7android14MemoryHeapBaseC2EPKcmj;
    _ZN7android14MemoryHeapBaseC2Ev;
    _ZN7android14MemoryHeapBaseD0Ev;
    _ZN7android14MemoryHeapBaseD1Ev;
    _ZN7android14MemoryHeapBaseD2Ev;
    _ZN7android15BnShellCallback10onTransactEjRKNS_6ParcelEPS1_j;
    _ZN7android15checkPermissionERKNS_8String16Eij;
    _ZN7android15IResultReceiver10descriptorE;
    _ZN7android15IResultReceiver11asInterfaceERKNS_2spINS_7IBinderEEE;
    _ZN7android15IResultReceiver12default_implE;
    _ZN7android15IResultReceiver14getDefaultImplEv;
    _ZN7android15IResultReceiver14setDefaultImplENSt3__110unique_ptrIS0_NS1_14default_deleteIS0_EEEE;
    _ZN7android15IResultReceiverC2Ev;
    _ZN7android15IResultReceiverD0Ev;
    _ZN7android15IResultReceiverD1Ev;
    _ZN7android15IResultReceiverD2Ev;
    _ZN7android15IServiceManagerC2Ev;
    _ZN7android15IServiceManagerD0Ev;
    _ZN7android15IServiceManagerD1Ev;
    _ZN7android15IServiceManagerD2Ev;
    _ZN7android15PermissionCache10purgeCacheEv;
    _ZN7android15PermissionCache15checkPermissionERKNS_8String16Eij;
    _ZN7android15PermissionCache22checkCallingPermissionERKNS_8String16E;
    _ZN7android15PermissionCache22checkCallingPermissionERKNS_8String16EPiS4_;
    _ZN7android15PermissionCache5cacheERKNS_8String16Ejb;
    _ZN7android15PermissionCache5purgeEv;
    _ZN7android15PermissionCacheC1Ev;
    _ZN7android15PermissionCacheC2Ev;
    _ZN7android15stringForIndentEi;
    _ZN7android16BnResultReceiver10onTransactEjRKNS_6ParcelEPS1_j;
    _ZN7android18BufferedTextOutput10moveIndentEi;
    _ZN7android18BufferedTextOutput10pushBundleEv;
    _ZN7android18BufferedTextOutput5printEPKcm;
    _ZN7android18BufferedTextOutput9popBundleEv;
    _ZN7android18BufferedTextOutputC2Ej;
    _ZN7android18BufferedTextOutputD0Ev;
    _ZN7android18BufferedTextOutputD1Ev;
    _ZN7android18BufferedTextOutputD2Ev;
    _ZN7android18ServiceManagerShim10addServiceERKNS_8String16ERKNS_2spINS_7IBinderEEEbi;
    _ZN7android18ServiceManagerShim10isDeclaredERKNS_8String16E;
    _ZN7android18ServiceManagerShim12listServicesEi;
    _ZN7android18ServiceManagerShim14waitForServiceERKNS_8String16E;
    _ZN7android18ServiceManagerShim16updatableViaApexERKNS_8String16E;
    _ZN7android18ServiceManagerShim20getDeclaredInstancesERKNS_8String16E;
    _ZN7android18ServiceManagerShimC1ERKNS_2spINS_2os15IServiceManagerEEE;
    _ZN7android18ServiceManagerShimC2ERKNS_2spINS_2os15IServiceManagerEEE;
    _ZN7android18the_context_objectE;
    _ZN7android20PermissionController10getServiceEv;
    _ZN7android20PermissionController13getPackageUidERKNS_8String16Ei;
    _ZN7android20PermissionController15checkPermissionERKNS_8String16Eii;
    _ZN7android20PermissionController17getPackagesForUidEjRNS_6VectorINS_8String16EEE;
    _ZN7android20PermissionController19isRuntimePermissionERKNS_8String16E;
    _ZN7android20PermissionController6noteOpERKNS_8String16EiS3_;
    _ZN7android20PermissionControllerC1Ev;
    _ZN7android20PermissionControllerC2Ev;
    _ZN7android21defaultServiceManagerEv;
    _ZN7android21IPermissionController10descriptorE;
    _ZN7android21IPermissionController11asInterfaceERKNS_2spINS_7IBinderEEE;
    _ZN7android21IPermissionController12default_implE;
    _ZN7android21IPermissionController14getDefaultImplEv;
    _ZN7android21IPermissionController14setDefaultImplENSt3__110unique_ptrIS0_NS1_14default_deleteIS0_EEEE;
    _ZN7android21IPermissionControllerC2Ev;
    _ZN7android21IPermissionControllerD0Ev;
    _ZN7android21IPermissionControllerD1Ev;
    _ZN7android21IPermissionControllerD2Ev;
    _ZN7android22BnPermissionController10onTransactEjRKNS_6ParcelEPS1_j;
    _ZN7android22checkCallingPermissionERKNS_8String16E;
    _ZN7android22checkCallingPermissionERKNS_8String16EPiS3_;
    _ZN7android22SimpleBestFitAllocator10deallocateEm;
    _ZN7android22SimpleBestFitAllocator12kMemoryAlignE;
    _ZN7android22SimpleBestFitAllocator5allocEmj;
    _ZN7android22SimpleBestFitAllocator7deallocEm;
    _ZN7android22SimpleBestFitAllocator8allocateEmj;
    _ZN7android22SimpleBestFitAllocatorC1Em;
    _ZN7android22SimpleBestFitAllocatorC2Em;
    _ZN7android22SimpleBestFitAllocatorD1Ev;
    _ZN7android22SimpleBestFitAllocatorD2Ev;
    _ZN7android24setDefaultServiceManagerERKNS_2spINS_15IServiceManagerEEE;
    _ZN7android2os15IClientCallback10descriptorE;
    _ZN7android2os15IClientCallback11asInterfaceERKNS_2spINS_7IBinderEEE;
    _ZN7android2os15IClientCallback12default_implE;
    _ZN7android2os15IClientCallback14getDefaultImplEv;
    _ZN7android2os15IClientCallback14setDefaultImplENSt3__110unique_ptrIS1_NS2_14default_deleteIS1_EEEE;
    _ZN7android2os15IClientCallbackC2Ev;
    _ZN7android2os15IClientCallbackD0Ev;
    _ZN7android2os15IClientCallbackD1Ev;
    _ZN7android2os15IClientCallbackD2Ev;
    _ZN7android2os15IServiceManager10descriptorE;
    _ZN7android2os15IServiceManager11asInterfaceERKNS_2spINS_7IBinderEEE;
    _ZN7android2os15IServiceManager12default_implE;
    _ZN7android2os15IServiceManager14getDefaultImplEv;
    _ZN7android2os15IServiceManager14setDefaultImplENSt3__110unique_ptrIS1_NS2_14default_deleteIS1_EEEE;
    _ZN7android2os15IServiceManagerC2Ev;
    _ZN7android2os15IServiceManagerD0Ev;
    _ZN7android2os15IServiceManagerD1Ev;
    _ZN7android2os15IServiceManagerD2Ev;
    _ZN7android2os16BnClientCallback10onTransactEjRKNS_6ParcelEPS2_j;
    _ZN7android2os16BnClientCallbackC2Ev;
    _ZN7android2os16BnServiceManager10onTransactEjRKNS_6ParcelEPS2_j;
    _ZN7android2os16BnServiceManagerC2Ev;
    _ZN7android2os16BpClientCallback9onClientsERKNS_2spINS_7IBinderEEEb;
    _ZN7android2os16BpClientCallbackC1ERKNS_2spINS_7IBinderEEE;
    _ZN7android2os16BpClientCallbackC2ERKNS_2spINS_7IBinderEEE;
    _ZN7android2os16BpServiceManager10addServiceERKNSt3__112basic_stringIcNS2_11char_traitsIcEENS2_9allocatorIcEEEERKNS_2spINS_7IBinderEEEbi;
    _ZN7android2os16BpServiceManager10getServiceERKNSt3__112basic_stringIcNS2_11char_traitsIcEENS2_9allocatorIcEEEEPNS_2spINS_7IBinderEEE;
    _ZN7android2os16BpServiceManager10isDeclaredERKNSt3__112basic_stringIcNS2_11char_traitsIcEENS2_9allocatorIcEEEEPb;
    _ZN7android2os16BpServiceManager12checkServiceERKNSt3__112basic_stringIcNS2_11char_traitsIcEENS2_9allocatorIcEEEEPNS_2spINS_7IBinderEEE;
    _ZN7android2os16BpServiceManager12listServicesEiPNSt3__16vectorINS2_12basic_stringIcNS2_11char_traitsIcEENS2_9allocatorIcEEEENS7_IS9_EEEE;
    _ZN7android2os16BpServiceManager16updatableViaApexERKNSt3__112basic_stringIcNS2_11char_traitsIcEENS2_9allocatorIcEEEEPNS2_8optionalIS8_EE;
    _ZN7android2os16BpServiceManager19getServiceDebugInfoEPNSt3__16vectorINS0_16ServiceDebugInfoENS2_9allocatorIS4_EEEE;
    _ZN7android2os16BpServiceManager20getDeclaredInstancesERKNSt3__112basic_stringIcNS2_11char_traitsIcEENS2_9allocatorIcEEEEPNS2_6vectorIS8_NS6_IS8_EEEE;
    _ZN7android2os16BpServiceManager20tryUnregisterServiceERKNSt3__112basic_stringIcNS2_11char_traitsIcEENS2_9allocatorIcEEEERKNS_2spINS_7IBinderEEE;
    _ZN7android2os16BpServiceManager22registerClientCallbackERKNSt3__112basic_stringIcNS2_11char_traitsIcEENS2_9allocatorIcEEEERKNS_2spINS_7IBinderEEERKNSB_INS0_15IClientCallbackEEE;
    _ZN7android2os16BpServiceManager24registerForNotificationsERKNSt3__112basic_stringIcNS2_11char_traitsIcEENS2_9allocatorIcEEEERKNS_2spINS0_16IServiceCallbackEEE;
    _ZN7android2os16BpServiceManager26unregisterForNotificationsERKNSt3__112basic_stringIcNS2_11char_traitsIcEENS2_9allocatorIcEEEERKNS_2spINS0_16IServiceCallbackEEE;
    _ZN7android2os16BpServiceManagerC1ERKNS_2spINS_7IBinderEEE;
    _ZN7android2os16BpServiceManagerC2ERKNS_2spINS_7IBinderEEE;
    _ZN7android2os16IServiceCallback10descriptorE;
    _ZN7android2os16IServiceCallback11asInterfaceERKNS_2spINS_7IBinderEEE;
    _ZN7android2os16IServiceCallback12default_implE;
    _ZN7android2os16IServiceCallback14getDefaultImplEv;
    _ZN7android2os16IServiceCallback14setDefaultImplENSt3__110unique_ptrIS1_NS2_14default_deleteIS1_EEEE;
    _ZN7android2os16IServiceCallbackC2Ev;
    _ZN7android2os16IServiceCallbackD0Ev;
    _ZN7android2os16IServiceCallbackD1Ev;
    _ZN7android2os16IServiceCallbackD2Ev;
    _ZN7android2os16ParcelableHolder14readFromParcelEPKNS_6ParcelE;
    _ZN7android2os16ServiceDebugInfo14readFromParcelEPKNS_6ParcelE;
    _ZN7android2os17BnServiceCallback10onTransactEjRKNS_6ParcelEPS2_j;
    _ZN7android2os17BnServiceCallbackC2Ev;
    _ZN7android2os17BpServiceCallback14onRegistrationERKNSt3__112basic_stringIcNS2_11char_traitsIcEENS2_9allocatorIcEEEERKNS_2spINS_7IBinderEEE;
    _ZN7android2os17BpServiceCallbackC1ERKNS_2spINS_7IBinderEEE;
    _ZN7android2os17BpServiceCallbackC2ERKNS_2spINS_7IBinderEEE;
    _ZN7android2os17PersistableBundle10putBooleanERKNS_8String16Eb;
    _ZN7android2os17PersistableBundle12putIntVectorERKNS_8String16ERKNSt3__16vectorIiNS5_9allocatorIiEEEE;
    _ZN7android2os17PersistableBundle13putLongVectorERKNS_8String16ERKNSt3__16vectorIlNS5_9allocatorIlEEEE;
    _ZN7android2os17PersistableBundle14readFromParcelEPKNS_6ParcelE;
    _ZN7android2os17PersistableBundle15putDoubleVectorERKNS_8String16ERKNSt3__16vectorIdNS5_9allocatorIdEEEE;
    _ZN7android2os17PersistableBundle15putStringVectorERKNS_8String16ERKNSt3__16vectorIS2_NS5_9allocatorIS2_EEEE;
    _ZN7android2os17PersistableBundle16putBooleanVectorERKNS_8String16ERKNSt3__16vectorIbNS5_9allocatorIbEEEE;
    _ZN7android2os17PersistableBundle19readFromParcelInnerEPKNS_6ParcelEm;
    _ZN7android2os17PersistableBundle20putPersistableBundleERKNS_8String16ERKS1_;
    _ZN7android2os17PersistableBundle5eraseERKNS_8String16E;
    _ZN7android2os17PersistableBundle6putIntERKNS_8String16Ei;
    _ZN7android2os17PersistableBundle7putLongERKNS_8String16El;
    _ZN7android2os17PersistableBundle9putDoubleERKNS_8String16Ed;
    _ZN7android2os17PersistableBundle9putStringERKNS_8String16ES4_;
    _ZN7android2os20ParcelFileDescriptor14readFromParcelEPKNS_6ParcelE;
    _ZN7android2os20ParcelFileDescriptorC1ENS_4base14unique_fd_implINS2_13DefaultCloserEEE;
    _ZN7android2os20ParcelFileDescriptorC1Ev;
    _ZN7android2os20ParcelFileDescriptorC2ENS_4base14unique_fd_implINS2_13DefaultCloserEEE;
    _ZN7android2os20ParcelFileDescriptorC2Ev;
    _ZN7android2os20ParcelFileDescriptorD0Ev;
    _ZN7android2os20ParcelFileDescriptorD1Ev;
    _ZN7android2os20ParcelFileDescriptorD2Ev;
    _ZN7android4aerrE;
    _ZN7android4alogE;
    _ZN7android4aoutE;
    _ZN7android6binder20LazyServiceRegistrar10reRegisterEv;
    _ZN7android6binder20LazyServiceRegistrar11getInstanceEv;
    _ZN7android6binder20LazyServiceRegistrar12forcePersistEb;
    _ZN7android6binder20LazyServiceRegistrar13tryUnregisterEv;
    _ZN7android6binder20LazyServiceRegistrar15registerServiceERKNS_2spINS_7IBinderEEERKNSt3__112basic_stringIcNS7_11char_traitsIcEENS7_9allocatorIcEEEEbi;
    _ZN7android6binder20LazyServiceRegistrar25setActiveServicesCallbackERKNSt3__18functionIFbbEEE;
    _ZN7android6binder20LazyServiceRegistrarC1Ev;
    _ZN7android6binder20LazyServiceRegistrarC2Ev;
    _ZN7android6binder6Status11fromStatusTEi;
    _ZN7android6binder6Status12setExceptionEiRKNS_7String8E;
    _ZN7android6binder6Status14readFromParcelERKNS_6ParcelE;
    _ZN7android6binder6Status14setFromStatusTEi;
    _ZN7android6binder6Status17exceptionToStringEi;
    _ZN7android6binder6Status17fromExceptionCodeEi;
    _ZN7android6binder6Status17fromExceptionCodeEiPKc;
    _ZN7android6binder6Status17fromExceptionCodeEiRKNS_7String8E;
    _ZN7android6binder6Status23setServiceSpecificErrorEiRKNS_7String8E;
    _ZN7android6binder6Status24fromServiceSpecificErrorEi;
    _ZN7android6binder6Status24fromServiceSpecificErrorEiPKc;
    _ZN7android6binder6Status24fromServiceSpecificErrorEiRKNS_7String8E;
    _ZN7android6binder6Status2okEv;
    _ZN7android6binder6StatusC1Eii;
    _ZN7android6binder6StatusC1EiiRKNS_7String8E;
    _ZN7android6binder6StatusC2Eii;
    _ZN7android6binder6StatusC2EiiRKNS_7String8E;
    _ZN7android6binder8internal21ClientCounterCallback10reRegisterEv;
    _ZN7android6binder8internal21ClientCounterCallback12forcePersistEb;
    _ZN7android6binder8internal21ClientCounterCallback13tryUnregisterEv;
    _ZN7android6binder8internal21ClientCounterCallback15registerServiceERKNS_2spINS_7IBinderEEERKNSt3__112basic_stringIcNS8_11char_traitsIcEENS8_9allocatorIcEEEEbi;
    _ZN7android6binder8internal21ClientCounterCallback25setActiveServicesCallbackERKNSt3__18functionIFbbEEE;
    _ZN7android6binder8internal21ClientCounterCallbackC1Ev;
    _ZN7android6binder8internal21ClientCounterCallbackC2Ev;
    _ZN7android6Parcel10appendFromEPKS0_mm;
    _ZN7android6Parcel10markForRpcERKNS_2spINS_10RpcSessionEEE;
    _ZN7android6Parcel10writeFloatEf;
    _ZN7android6Parcel10writeInt32Ei;
    _ZN7android6Parcel10writeInt64El;
    _ZN7android6Parcel11compareDataERKS0_;
    _ZN7android6Parcel11finishWriteEm;
    _ZN7android6Parcel11setDataSizeEm;
    _ZN7android6Parcel11writeDoubleEd;
    _ZN7android6Parcel11writeObjectERK18flat_binder_objectb;
    _ZN7android6Parcel11writeUint32Ej;
    _ZN7android6Parcel11writeUint64Em;
    _ZN7android6Parcel12pushAllowFdsEb;
    _ZN7android6Parcel12restartWriteEm;
    _ZN7android6Parcel12writeCStringEPKc;
    _ZN7android6Parcel12writeInplaceEm;
    _ZN7android6Parcel12writePointerEm;
    _ZN7android6Parcel12writeString8EPKcm;
    _ZN7android6Parcel12writeString8ERKNS_7String8E;
    _ZN7android6Parcel13continueWriteEm;
    _ZN7android6Parcel13flattenBinderERKNS_2spINS_7IBinderEEE;
    _ZN7android6Parcel13markForBinderERKNS_2spINS_7IBinderEEE;
    _ZN7android6Parcel13writeString16EPKDsm;
    _ZN7android6Parcel13writeString16ERKNS_8String16E;
    _ZN7android6Parcel13writeString16ERKNSt3__110unique_ptrINS_8String16ENS1_14default_deleteIS3_EEEE;
    _ZN7android6Parcel13writeString16ERKNSt3__18optionalINS_8String16EEE;
    _ZN7android6Parcel13writeUnpaddedEPKvm;
    _ZN7android6Parcel14acquireObjectsEv;
    _ZN7android6Parcel14freeDataNoInitEv;
    _ZN7android6Parcel14releaseObjectsEv;
    _ZN7android6Parcel14writeByteArrayEmPKh;
    _ZN7android6Parcel15restoreAllowFdsEb;
    _ZN7android6Parcel15setDataCapacityEm;
    _ZN7android6Parcel15writeBoolVectorERKNSt3__110unique_ptrINS1_6vectorIbNS1_9allocatorIbEEEENS1_14default_deleteIS6_EEEE;
    _ZN7android6Parcel15writeBoolVectorERKNSt3__16vectorIbNS1_9allocatorIbEEEE;
    _ZN7android6Parcel15writeBoolVectorERKNSt3__18optionalINS1_6vectorIbNS1_9allocatorIbEEEEEE;
    _ZN7android6Parcel15writeByteVectorERKNSt3__110unique_ptrINS1_6vectorIaNS1_9allocatorIaEEEENS1_14default_deleteIS6_EEEE;
    _ZN7android6Parcel15writeByteVectorERKNSt3__110unique_ptrINS1_6vectorIhNS1_9allocatorIhEEEENS1_14default_deleteIS6_EEEE;
    _ZN7android6Parcel15writeByteVectorERKNSt3__16vectorIaNS1_9allocatorIaEEEE;
    _ZN7android6Parcel15writeByteVectorERKNSt3__16vectorIhNS1_9allocatorIhEEEE;
    _ZN7android6Parcel15writeByteVectorERKNSt3__18optionalINS1_6vectorIaNS1_9allocatorIaEEEEEE;
    _ZN7android6Parcel15writeByteVectorERKNSt3__18optionalINS1_6vectorIhNS1_9allocatorIhEEEEEE;
    _ZN7android6Parcel15writeCharVectorERKNSt3__110unique_ptrINS1_6vectorIDsNS1_9allocatorIDsEEEENS1_14default_deleteIS6_EEEE;
    _ZN7android6Parcel15writeCharVectorERKNSt3__16vectorIDsNS1_9allocatorIDsEEEE;
    _ZN7android6Parcel15writeCharVectorERKNSt3__18optionalINS1_6vectorIDsNS1_9allocatorIDsEEEEEE;
    _ZN7android6Parcel15writeInt32ArrayEmPKi;
    _ZN7android6Parcel15writeParcelableERKNS_10ParcelableE;
    _ZN7android6Parcel16writeFloatVectorERKNSt3__110unique_ptrINS1_6vectorIfNS1_9allocatorIfEEEENS1_14default_deleteIS6_EEEE;
    _ZN7android6Parcel16writeFloatVectorERKNSt3__16vectorIfNS1_9allocatorIfEEEE;
    _ZN7android6Parcel16writeFloatVectorERKNSt3__18optionalINS1_6vectorIfNS1_9allocatorIfEEEEEE;
    _ZN7android6Parcel16writeInt32VectorERKNSt3__110unique_ptrINS1_6vectorIiNS1_9allocatorIiEEEENS1_14default_deleteIS6_EEEE;
    _ZN7android6Parcel16writeInt32VectorERKNSt3__16vectorIiNS1_9allocatorIiEEEE;
    _ZN7android6Parcel16writeInt32VectorERKNSt3__18optionalINS1_6vectorIiNS1_9allocatorIiEEEEEE;
    _ZN7android6Parcel16writeInt64VectorERKNSt3__110unique_ptrINS1_6vectorIlNS1_9allocatorIlEEEENS1_14default_deleteIS6_EEEE;
    _ZN7android6Parcel16writeInt64VectorERKNSt3__16vectorIlNS1_9allocatorIlEEEE;
    _ZN7android6Parcel16writeInt64VectorERKNSt3__18optionalINS1_6vectorIlNS1_9allocatorIlEEEEEE;
    _ZN7android6Parcel16writeNoExceptionEv;
    _ZN7android6Parcel16writeUtf8AsUtf16ERKNSt3__110unique_ptrINS1_12basic_stringIcNS1_11char_traitsIcEENS1_9allocatorIcEEEENS1_14default_deleteIS8_EEEE;
    _ZN7android6Parcel16writeUtf8AsUtf16ERKNSt3__112basic_stringIcNS1_11char_traitsIcEENS1_9allocatorIcEEEE;
    _ZN7android6Parcel16writeUtf8AsUtf16ERKNSt3__18optionalINS1_12basic_stringIcNS1_11char_traitsIcEENS1_9allocatorIcEEEEEE;
    _ZN7android6Parcel17writeDoubleVectorERKNSt3__110unique_ptrINS1_6vectorIdNS1_9allocatorIdEEEENS1_14default_deleteIS6_EEEE;
    _ZN7android6Parcel17writeDoubleVectorERKNSt3__16vectorIdNS1_9allocatorIdEEEE;
    _ZN7android6Parcel17writeDoubleVectorERKNSt3__18optionalINS1_6vectorIdNS1_9allocatorIdEEEEEE;
    _ZN7android6Parcel17writeNativeHandleEPK13native_handle;
    _ZN7android6Parcel17writeStrongBinderERKNS_2spINS_7IBinderEEE;
    _ZN7android6Parcel17writeUint64VectorERKNSt3__110unique_ptrINS1_6vectorImNS1_9allocatorImEEEENS1_14default_deleteIS6_EEEE;
    _ZN7android6Parcel17writeUint64VectorERKNSt3__16vectorImNS1_9allocatorImEEEE;
    _ZN7android6Parcel17writeUint64VectorERKNSt3__18optionalINS1_6vectorImNS1_9allocatorImEEEEEE;
    _ZN7android6Parcel18getGlobalAllocSizeEv;
    _ZN7android6Parcel19finishFlattenBinderERKNS_2spINS_7IBinderEEE;
    _ZN7android6Parcel19getGlobalAllocCountEv;
    _ZN7android6Parcel19ipcSetDataReferenceEPKhmPKymPFvPS0_S2_mS4_mE;
    _ZN7android6Parcel19writeFileDescriptorEib;
    _ZN7android6Parcel19writeInterfaceTokenEPKDsm;
    _ZN7android6Parcel19writeInterfaceTokenERKNS_8String16E;
    _ZN7android6Parcel19writeString16VectorERKNSt3__110unique_ptrINS1_6vectorINS2_INS_8String16ENS1_14default_deleteIS4_EEEENS1_9allocatorIS7_EEEENS5_ISA_EEEE;
    _ZN7android6Parcel19writeString16VectorERKNSt3__16vectorINS_8String16ENS1_9allocatorIS3_EEEE;
    _ZN7android6Parcel19writeString16VectorERKNSt3__18optionalINS1_6vectorINS2_INS_8String16EEENS1_9allocatorIS5_EEEEEE;
    _ZN7android6Parcel20closeFileDescriptorsEv;
    _ZN7android6Parcel22writeDupFileDescriptorEi;
    _ZN7android6Parcel23writeStrongBinderVectorERKNSt3__110unique_ptrINS1_6vectorINS_2spINS_7IBinderEEENS1_9allocatorIS6_EEEENS1_14default_deleteIS9_EEEE;
    _ZN7android6Parcel23writeStrongBinderVectorERKNSt3__16vectorINS_2spINS_7IBinderEEENS1_9allocatorIS5_EEEE;
    _ZN7android6Parcel23writeStrongBinderVectorERKNSt3__18optionalINS1_6vectorINS_2spINS_7IBinderEEENS1_9allocatorIS6_EEEEEE;
    _ZN7android6Parcel25writeParcelFileDescriptorEib;
    _ZN7android6Parcel25writeUniqueFileDescriptorERKNS_4base14unique_fd_implINS1_13DefaultCloserEEE;
    _ZN7android6Parcel26writeRawNullableParcelableEPKNS_10ParcelableE;
    _ZN7android6Parcel27replaceCallingWorkSourceUidEj;
    _ZN7android6Parcel28writeDupParcelFileDescriptorEi;
    _ZN7android6Parcel28writeUtf8VectorAsUtf16VectorERKNSt3__110unique_ptrINS1_6vectorINS2_INS1_12basic_stringIcNS1_11char_traitsIcEENS1_9allocatorIcEEEENS1_14default_deleteIS9_EEEENS7_ISC_EEEENSA_ISE_EEEE;
    _ZN7android6Parcel28writeUtf8VectorAsUtf16VectorERKNSt3__16vectorINS1_12basic_stringIcNS1_11char_traitsIcEENS1_9allocatorIcEEEENS6_IS8_EEEE;
    _ZN7android6Parcel28writeUtf8VectorAsUtf16VectorERKNSt3__18optionalINS1_6vectorINS2_INS1_12basic_stringIcNS1_11char_traitsIcEENS1_9allocatorIcEEEEEENS7_ISA_EEEEEE;
    _ZN7android6Parcel31writeUniqueFileDescriptorVectorERKNSt3__110unique_ptrINS1_6vectorINS_4base14unique_fd_implINS4_13DefaultCloserEEENS1_9allocatorIS7_EEEENS1_14default_deleteISA_EEEE;
    _ZN7android6Parcel31writeUniqueFileDescriptorVectorERKNSt3__16vectorINS_4base14unique_fd_implINS3_13DefaultCloserEEENS1_9allocatorIS6_EEEE;
    _ZN7android6Parcel31writeUniqueFileDescriptorVectorERKNSt3__18optionalINS1_6vectorINS_4base14unique_fd_implINS4_13DefaultCloserEEENS1_9allocatorIS7_EEEEEE;
    _ZN7android6Parcel35writeDupImmutableBlobFileDescriptorEi;
    _ZN7android6Parcel4Blob4initEiPvmb;
    _ZN7android6Parcel4Blob5clearEv;
    _ZN7android6Parcel4Blob7releaseEv;
    _ZN7android6Parcel4BlobC1Ev;
    _ZN7android6Parcel4BlobC2Ev;
    _ZN7android6Parcel4BlobD1Ev;
    _ZN7android6Parcel4BlobD2Ev;
    _ZN7android6Parcel5writeEPKvm;
    _ZN7android6Parcel5writeERKNS0_26FlattenableHelperInterfaceE;
    _ZN7android6Parcel7setDataEPKhm;
    _ZN7android6Parcel8freeDataEv;
    _ZN7android6Parcel8growDataEm;
    _ZN7android6Parcel8setErrorEi;
    _ZN7android6Parcel9initStateEv;
    _ZN7android6Parcel9writeBlobEmbPNS0_12WritableBlobE;
    _ZN7android6Parcel9writeBoolEb;
    _ZN7android6Parcel9writeByteEa;
    _ZN7android6Parcel9writeCharEDs;
    _ZN7android6ParcelC1Ev;
    _ZN7android6ParcelC2Ev;
    _ZN7android6ParcelD1Ev;
    _ZN7android6ParcelD2Ev;
    _ZN7android7BBinder10onTransactEjRKNS_6ParcelEPS1_j;
    _ZN7android7BBinder10pingBinderEv;
    _ZN7android7BBinder11getDebugPidEv;
    _ZN7android7BBinder11isInheritRtEv;
    _ZN7android7BBinder11linkToDeathERKNS_2spINS_7IBinder14DeathRecipientEEEPvj;
    _ZN7android7BBinder11localBinderEv;
    _ZN7android7BBinder12attachObjectEPKvPvS3_PFvS2_S3_S3_E;
    _ZN7android7BBinder12detachObjectEPKv;
    _ZN7android7BBinder12getExtensionEv;
    _ZN7android7BBinder12setExtensionERKNS_2spINS_7IBinderEEE;
    _ZN7android7BBinder12setInheritRtEb;
    _ZN7android7BBinder13unlinkToDeathERKNS_2wpINS_7IBinder14DeathRecipientEEEPvjPS4_;
    _ZN7android7BBinder15isRequestingSidEv;
    _ZN7android7BBinder16setRequestingSidEb;
    _ZN7android7BBinder17getOrCreateExtrasEv;
    _ZN7android7BBinder21getMinSchedulerPolicyEv;
    _ZN7android7BBinder21setMinSchedulerPolicyEii;
    _ZN7android7BBinder23getMinSchedulerPriorityEv;
    _ZN7android7BBinder4dumpEiRKNS_6VectorINS_8String16EEE;
    _ZN7android7BBinder8transactEjRKNS_6ParcelEPS1_j;
    _ZN7android7BBinderC1Ev;
    _ZN7android7BBinderC2Ev;
    _ZN7android7BBinderD0Ev;
    _ZN7android7BBinderD1Ev;
    _ZN7android7BBinderD2Ev;
    _ZN7android7content2pm18PackageChangeEvent14readFromParcelEPKNS_6ParcelE;
    _ZN7android7content2pm21IPackageManagerNative10descriptorE;
    _ZN7android7content2pm21IPackageManagerNative11asInterfaceERKNS_2spINS_7IBinderEEE;
    _ZN7android7content2pm21IPackageManagerNative12default_implE;
    _ZN7android7content2pm21IPackageManagerNative14getDefaultImplEv;
    _ZN7android7content2pm21IPackageManagerNative14setDefaultImplENSt3__110unique_ptrIS2_NS3_14default_deleteIS2_EEEE;
    _ZN7android7content2pm21IPackageManagerNativeC2Ev;
    _ZN7android7content2pm21IPackageManagerNativeD0Ev;
    _ZN7android7content2pm21IPackageManagerNativeD1Ev;
    _ZN7android7content2pm21IPackageManagerNativeD2Ev;
    _ZN7android7content2pm22BnPackageManagerNative10onTransactEjRKNS_6ParcelEPS3_j;
    _ZN7android7content2pm22BnPackageManagerNativeC2Ev;
    _ZN7android7content2pm22BpPackageManagerNative14getAllPackagesEPNSt3__16vectorINS3_12basic_stringIcNS3_11char_traitsIcEENS3_9allocatorIcEEEENS8_ISA_EEEE;
    _ZN7android7content2pm22BpPackageManagerNative15getNamesForUidsERKNSt3__16vectorIiNS3_9allocatorIiEEEEPNS4_INS3_12basic_stringIcNS3_11char_traitsIcEENS5_IcEEEENS5_ISE_EEEE;
    _ZN7android7content2pm22BpPackageManagerNative16getLocationFlagsERKNSt3__112basic_stringIcNS3_11char_traitsIcEENS3_9allocatorIcEEEEPi;
    _ZN7android7content2pm22BpPackageManagerNative16hasSystemFeatureERKNS_8String16EiPb;
    _ZN7android7content2pm22BpPackageManagerNative19isPackageDebuggableERKNS_8String16EPb;
    _ZN7android7content2pm22BpPackageManagerNative22getInstallerForPackageERKNS_8String16EPNSt3__112basic_stringIcNS6_11char_traitsIcEENS6_9allocatorIcEEEE;
    _ZN7android7content2pm22BpPackageManagerNative24getVersionCodeForPackageERKNS_8String16EPl;
    _ZN7android7content2pm22BpPackageManagerNative27hasSha256SigningCertificateERKNSt3__112basic_stringIcNS3_11char_traitsIcEENS3_9allocatorIcEEEERKNS3_6vectorIhNS7_IhEEEEPb;
    _ZN7android7content2pm22BpPackageManagerNative28getModuleMetadataPackageNameEPNSt3__112basic_stringIcNS3_11char_traitsIcEENS3_9allocatorIcEEEE;
    _ZN7android7content2pm22BpPackageManagerNative29getTargetSdkVersionForPackageERKNS_8String16EPi;
    _ZN7android7content2pm22BpPackageManagerNative29isAudioPlaybackCaptureAllowedERKNSt3__16vectorINS3_12basic_stringIcNS3_11char_traitsIcEENS3_9allocatorIcEEEENS8_ISA_EEEEPNS4_IbNS8_IbEEEE;
    _ZN7android7content2pm22BpPackageManagerNative29registerPackageChangeObserverERKNS_2spINS1_22IPackageChangeObserverEEE;
    _ZN7android7content2pm22BpPackageManagerNative31unregisterPackageChangeObserverERKNS_2spINS1_22IPackageChangeObserverEEE;
    _ZN7android7content2pm22BpPackageManagerNativeC1ERKNS_2spINS_7IBinderEEE;
    _ZN7android7content2pm22BpPackageManagerNativeC2ERKNS_2spINS_7IBinderEEE;
    _ZN7android7content2pm22IPackageChangeObserver10descriptorE;
    _ZN7android7content2pm22IPackageChangeObserver11asInterfaceERKNS_2spINS_7IBinderEEE;
    _ZN7android7content2pm22IPackageChangeObserver12default_implE;
    _ZN7android7content2pm22IPackageChangeObserver14getDefaultImplEv;
    _ZN7android7content2pm22IPackageChangeObserver14setDefaultImplENSt3__110unique_ptrIS2_NS3_14default_deleteIS2_EEEE;
    _ZN7android7content2pm22IPackageChangeObserverC2Ev;
    _ZN7android7content2pm22IPackageChangeObserverD0Ev;
    _ZN7android7content2pm22IPackageChangeObserverD1Ev;
    _ZN7android7content2pm22IPackageChangeObserverD2Ev;
    _ZN7android7content2pm23BnPackageChangeObserver10onTransactEjRKNS_6ParcelEPS3_j;
    _ZN7android7content2pm23BnPackageChangeObserverC2Ev;
    _ZN7android7content2pm23BpPackageChangeObserver16onPackageChangedERKNS1_18PackageChangeEventE;
    _ZN7android7content2pm23BpPackageChangeObserverC1ERKNS_2spINS_7IBinderEEE;
    _ZN7android7content2pm23BpPackageChangeObserverC2ERKNS_2spINS_7IBinderEEE;
    _ZN7android7HexDumpC1EPKvmm;
    _ZN7android7HexDumpC2EPKvmm;
    _ZN7android7IBinder11getDebugPidEPi;
    _ZN7android7IBinder11localBinderEv;
    _ZN7android7IBinder12getExtensionEPNS_2spIS0_EE;
    _ZN7android7IBinder12remoteBinderEv;
    _ZN7android7IBinder12shellCommandERKNS_2spIS0_EEiiiRNS_6VectorINS_8String16EEERKNS1_INS_14IShellCallbackEEERKNS1_INS_15IResultReceiverEEE;
    _ZN7android7IBinder19queryLocalInterfaceERKNS_8String16E;
    _ZN7android7IBinderC2Ev;
    _ZN7android7IBinderD0Ev;
    _ZN7android7IBinderD1Ev;
    _ZN7android7IBinderD2Ev;
    _ZN7android7IMemory10descriptorE;
    _ZN7android7IMemory11asInterfaceERKNS_2spINS_7IBinderEEE;
    _ZN7android7IMemory12default_implE;
    _ZN7android7IMemory14getDefaultImplEv;
    _ZN7android7IMemory14setDefaultImplENSt3__110unique_ptrIS0_NS1_14default_deleteIS0_EEEE;
    _ZN7android7IMemoryC2Ev;
    _ZN7android7IMemoryD0Ev;
    _ZN7android7IMemoryD1Ev;
    _ZN7android7IMemoryD2Ev;
    _ZN7android8BnMemory10onTransactEjRKNS_6ParcelEPS1_j;
    _ZN7android8BnMemoryC2Ev;
    _ZN7android8BnMemoryD0Ev;
    _ZN7android8BnMemoryD1Ev;
    _ZN7android8BnMemoryD2Ev;
    _ZN7android8BpBinder10onFirstRefEv;
    _ZN7android8BpBinder10pingBinderEv;
    _ZN7android8BpBinder11linkToDeathERKNS_2spINS_7IBinder14DeathRecipientEEEPvj;
    _ZN7android8BpBinder12attachObjectEPKvPvS3_PFvS2_S3_S3_E;
    _ZN7android8BpBinder12detachObjectEPKv;
    _ZN7android8BpBinder12remoteBinderEv;
    _ZN7android8BpBinder12sendObituaryEv;
    _ZN7android8BpBinder12sTrackingMapE;
    _ZN7android8BpBinder13getCountByUidERNS_6VectorIjEES3_;
    _ZN7android8BpBinder13ObjectManager4killEv;
    _ZN7android8BpBinder13ObjectManager6attachEPKvPvS4_PFvS3_S4_S4_E;
    _ZN7android8BpBinder13ObjectManager6detachEPKv;
    _ZN7android8BpBinder13ObjectManagerC1Ev;
    _ZN7android8BpBinder13ObjectManagerC2Ev;
    _ZN7android8BpBinder13ObjectManagerD1Ev;
    _ZN7android8BpBinder13ObjectManagerD2Ev;
    _ZN7android8BpBinder13sTrackingLockE;
    _ZN7android8BpBinder13unlinkToDeathERKNS_2wpINS_7IBinder14DeathRecipientEEEPvjPS4_;
    _ZN7android8BpBinder14reportOneDeathERKNS0_8ObituaryE;
    _ZN7android8BpBinder14sLimitCallbackE;
    _ZN7android8BpBinder15onLastStrongRefEPKv;
    _ZN7android8BpBinder15sNumTrackedUidsE;
    _ZN7android8BpBinder16enableCountByUidEv;
    _ZN7android8BpBinder16setLimitCallbackEPFviE;
    _ZN7android8BpBinder17disableCountByUidEv;
    _ZN7android8BpBinder18sCountByUidEnabledE;
    _ZN7android8BpBinder19getBinderProxyCountEj;
    _ZN7android8BpBinder20onIncStrongAttemptedEjPKv;
    _ZN7android8BpBinder20setCountByUidEnabledEb;
    _ZN7android8BpBinder26sBinderProxyThrottleCreateE;
    _ZN7android8BpBinder29sBinderProxyCountLowWatermarkE;
    _ZN7android8BpBinder29setBinderProxyCountWatermarksEii;
    _ZN7android8BpBinder30sBinderProxyCountHighWatermarkE;
    _ZN7android8BpBinder4dumpEiRKNS_6VectorINS_8String16EEE;
    _ZN7android8BpBinder6createEi;
    _ZN7android8BpBinder6createERKNS_2spINS_10RpcSessionEEERKNS_10RpcAddressE;
    _ZN7android8BpBinder8transactEjRKNS_6ParcelEPS1_j;
    _ZN7android8BpBinderC1EONS0_12BinderHandleEi;
    _ZN7android8BpBinderC1EONS0_9RpcHandleE;
    _ZN7android8BpBinderC1EONSt3__17variantIJNS0_12BinderHandleENS0_9RpcHandleEEEE;
    _ZN7android8BpBinderC2EONS0_12BinderHandleEi;
    _ZN7android8BpBinderC2EONS0_9RpcHandleE;
    _ZN7android8BpBinderC2EONSt3__17variantIJNS0_12BinderHandleENS0_9RpcHandleEEEE;
    _ZN7android8BpBinderD0Ev;
    _ZN7android8BpBinderD1Ev;
    _ZN7android8BpBinderD2Ev;
    _ZN7android8BpMemoryC1ERKNS_2spINS_7IBinderEEE;
    _ZN7android8BpMemoryC2ERKNS_2spINS_7IBinderEEE;
    _ZN7android8BpMemoryD0Ev;
    _ZN7android8BpMemoryD1Ev;
    _ZN7android8BpMemoryD2Ev;
    _ZN7android8internal9Stability11getCategoryEPNS_7IBinderE;
    _ZN7android8internal9Stability11levelStringENS1_5LevelE;
    _ZN7android8internal9Stability13getLocalLevelEv;
    _ZN7android8internal9Stability15isDeclaredLevelENS1_5LevelE;
    _ZN7android8internal9Stability17debugLogStabilityERKNSt3__112basic_stringIcNS2_11char_traitsIcEENS2_9allocatorIcEEEERKNS_2spINS_7IBinderEEE;
    _ZN7android8internal9Stability19markCompilationUnitEPNS_7IBinderE;
    _ZN7android8internal9Stability22tryMarkCompilationUnitEPNS_7IBinderE;
    _ZN7android8internal9Stability24requiresVintfDeclarationERKNS_2spINS_7IBinderEEE;
    _ZN7android8internal9Stability25forceDowngradeToStabilityERKNS_2spINS_7IBinderEEENS1_5LevelE;
    _ZN7android8internal9Stability30forceDowngradeToLocalStabilityERKNS_2spINS_7IBinderEEE;
    _ZN7android8internal9Stability31forceDowngradeToSystemStabilityERKNS_2spINS_7IBinderEEE;
    _ZN7android8internal9Stability31forceDowngradeToVendorStabilityERKNS_2spINS_7IBinderEEE;
    _ZN7android8internal9Stability5checkENS1_8CategoryENS1_5LevelE;
    _ZN7android8internal9Stability7setReprEPNS_7IBinderEij;
    _ZN7android8internal9Stability8Category11debugStringEv;
    _ZN7android8internal9Stability8markVndkEPNS_7IBinderE;
    _ZN7android8internal9Stability9markVintfEPNS_7IBinderE;
    _ZN7android8RpcState11CommandDataC1Em;
    _ZN7android8RpcState11CommandDataC2Em;
    _ZN7android8RpcState12countBindersEv;
    _ZN7android8RpcState12getSessionIdERKNS_4base14unique_fd_implINS1_13DefaultCloserEEERKNS_2spINS_10RpcSessionEEEPi;
    _ZN7android8RpcState12waitForReplyERKNS_4base14unique_fd_implINS1_13DefaultCloserEEERKNS_2spINS_10RpcSessionEEEPNS_6ParcelE;
    _ZN7android8RpcState13getMaxThreadsERKNS_4base14unique_fd_implINS1_13DefaultCloserEEERKNS_2spINS_10RpcSessionEEEPm;
    _ZN7android8RpcState13getRootObjectERKNS_4base14unique_fd_implINS1_13DefaultCloserEEERKNS_2spINS_10RpcSessionEEE;
    _ZN7android8RpcState13sendDecStrongERKNS_4base14unique_fd_implINS1_13DefaultCloserEEERKNS_10RpcAddressE;
    _ZN7android8RpcState15onBinderLeavingERKNS_2spINS_10RpcSessionEEERKNS1_INS_7IBinderEEEPNS_10RpcAddressE;
    _ZN7android8RpcState15processTransactERKNS_4base14unique_fd_implINS1_13DefaultCloserEEERKNS_2spINS_10RpcSessionEEERKNS_13RpcWireHeaderE;
    _ZN7android8RpcState16onBinderEnteringERKNS_2spINS_10RpcSessionEEERKNS_10RpcAddressE;
    _ZN7android8RpcState16processDecStrongERKNS_4base14unique_fd_implINS1_13DefaultCloserEEERKNS_13RpcWireHeaderE;
    _ZN7android8RpcState20getAndExecuteCommandERKNS_4base14unique_fd_implINS1_13DefaultCloserEEERKNS_2spINS_10RpcSessionEEE;
    _ZN7android8RpcState20processServerCommandERKNS_4base14unique_fd_implINS1_13DefaultCloserEEERKNS_2spINS_10RpcSessionEEERKNS_13RpcWireHeaderE;
    _ZN7android8RpcState23processTransactInternalERKNS_4base14unique_fd_implINS1_13DefaultCloserEEERKNS_2spINS_10RpcSessionEEENS0_11CommandDataE;
    _ZN7android8RpcState4dumpEv;
    _ZN7android8RpcState6rpcRecERKNS_4base14unique_fd_implINS1_13DefaultCloserEEEPKcPvm;
    _ZN7android8RpcState7rpcSendERKNS_4base14unique_fd_implINS1_13DefaultCloserEEEPKcPKvm;
    _ZN7android8RpcState8transactERKNS_4base14unique_fd_implINS1_13DefaultCloserEEERKNS_10RpcAddressEjRKNS_6ParcelERKNS_2spINS_10RpcSessionEEEPSA_j;
    _ZN7android8RpcState9terminateEv;
    _ZN7android8RpcStateC1Ev;
    _ZN7android8RpcStateC2Ev;
    _ZN7android8RpcStateD1Ev;
    _ZN7android8RpcStateD2Ev;
    _ZN7android9BpRefBase10onFirstRefEv;
    _ZN7android9BpRefBase15onLastStrongRefEPKv;
    _ZN7android9BpRefBase20onIncStrongAttemptedEjPKv;
    _ZN7android9BpRefBaseC1ERKNS_2spINS_7IBinderEEE;
    _ZN7android9BpRefBaseC2ERKNS_2spINS_7IBinderEEE;
    _ZN7android9BpRefBaseD0Ev;
    _ZN7android9BpRefBaseD1Ev;
    _ZN7android9BpRefBaseD2Ev;
    _ZN7android9HeapCache10binderDiedERKNS_2wpINS_7IBinderEEE;
    _ZN7android9HeapCache10dump_heapsEv;
    _ZN7android9HeapCache8get_heapERKNS_2spINS_7IBinderEEE;
    _ZN7android9HeapCache9find_heapERKNS_2spINS_7IBinderEEE;
    _ZN7android9HeapCache9free_heapERKNS_2spINS_7IBinderEEE;
    _ZN7android9HeapCache9free_heapERKNS_2wpINS_7IBinderEEE;
    _ZN7android9HeapCacheC1Ev;
    _ZN7android9HeapCacheC2Ev;
    _ZN7android9HeapCacheD0Ev;
    _ZN7android9HeapCacheD1Ev;
    _ZN7android9HeapCacheD2Ev;
    _ZN7android9hexStringEPKvm;
    _ZN7android9RpcServer12listSessionsEv;
    _ZN7android9RpcServer13getMaxThreadsEv;
    _ZN7android9RpcServer13getRootObjectEv;
    _ZN7android9RpcServer13releaseServerEv;
    _ZN7android9RpcServer13setMaxThreadsEm;
    _ZN7android9RpcServer13setRootObjectERKNS_2spINS_7IBinderEEE;
    _ZN7android9RpcServer15setupInetServerEjPj;
    _ZN7android9RpcServer16setupVsockServerEj;
    _ZN7android9RpcServer17setRootObjectWeakERKNS_2wpINS_7IBinderEEE;
    _ZN7android9RpcServer17setupSocketServerERKNS_16RpcSocketAddressE;
    _ZN7android9RpcServer19establishConnectionEONS_2spIS0_EENS_4base14unique_fd_implINS4_13DefaultCloserEEE;
    _ZN7android9RpcServer19setupExternalServerENS_4base14unique_fd_implINS1_13DefaultCloserEEE;
    _ZN7android9RpcServer20onSessionTerminatingERKNS_2spINS_10RpcSessionEEE;
    _ZN7android9RpcServer21setupUnixDomainServerEPKc;
    _ZN7android9RpcServer24numUninitializedSessionsEv;
    _ZN7android9RpcServer4joinEv;
    _ZN7android9RpcServer4makeEv;
    _ZN7android9RpcServer61iUnderstandThisCodeIsExperimentalAndIWillNotUseItInProductionEv;
    _ZN7android9RpcServer9acceptOneEv;
    _ZN7android9RpcServer9hasServerEv;
    _ZN7android9RpcServerC1Ev;
    _ZN7android9RpcServerC2Ev;
    _ZN7android9RpcServerD0Ev;
    _ZN7android9RpcServerD1Ev;
    _ZN7android9RpcServerD2Ev;
    _ZN7android9SingletonINS_15PermissionCacheEE11getInstanceEv;
    _ZN7android9SingletonINS_15PermissionCacheEE11hasInstanceEv;
    _ZN7android9SingletonINS_15PermissionCacheEE5sLockE;
    _ZN7android9SingletonINS_15PermissionCacheEE9sInstanceE;
    _ZN7android9SingletonINS_15PermissionCacheEEC1Ev;
    _ZN7android9SingletonINS_15PermissionCacheEEC2Ev;
    _ZN7android9SingletonINS_15PermissionCacheEED1Ev;
    _ZN7android9SingletonINS_15PermissionCacheEED2Ev;
    _ZN7androidlsERNS_10TextOutputERKNS_7HexDumpE;
    _ZN7androidlsERNS_10TextOutputERKNS_8TypeCodeE;
    _ZN7androidlsIA15_cEERNS_10TextOutputES3_RKT_;
    _ZN7androidlsIA24_cEERNS_10TextOutputES3_RKT_;
    _ZN7androidlsIA2_cEERNS_10TextOutputES3_RKT_;
    _ZN7androidlsIA34_cEERNS_10TextOutputES3_RKT_;
    _ZN7androidlsIA3_cEERNS_10TextOutputES3_RKT_;
    _ZN7androidlsIA43_cEERNS_10TextOutputES3_RKT_;
    _ZN7androidlsIA4_cEERNS_10TextOutputES3_RKT_;
    _ZN7androidlsIA5_cEERNS_10TextOutputES3_RKT_;
    _ZN7androidlsIA8_cEERNS_10TextOutputES3_RKT_;
    _ZN7androidlsIA9_cEERNS_10TextOutputES3_RKT_;
    _ZN7androidlsIjEERNS_10TextOutputES2_RKT_;
    _ZN7androidlsImEERNS_10TextOutputES2_RKT_;
    _ZN7androidlsINSt3__112basic_stringIcNS1_11char_traitsIcEENS1_9allocatorIcEEEEEERNS_10TextOutputES9_RKT_;
    _ZN7androidlsIPcEERNS_10TextOutputES3_RKT_;
    _ZN7androidlsIPvEERNS_10TextOutputES3_RKT_;
    _ZN7androidlsIyEERNS_10TextOutputES2_RKT_;
    _ZNK7android10MemoryBase9getMemoryEPlPm;
    _ZNK7android10RpcAddress13writeToParcelEPNS_6ParcelE;
    _ZNK7android10RpcAddress15viewRawEmbeddedEv;
    _ZNK7android10RpcAddress6isZeroEv;
    _ZNK7android10RpcAddress8toStringEv;
    _ZNK7android10RpcAddressltERKS0_;
    _ZNK7android11IMemoryHeap22getInterfaceDescriptorEv;
    _ZNK7android12BpMemoryHeap12assertMappedEv;
    _ZNK7android12BpMemoryHeap18assertReallyMappedEv;
    _ZNK7android12BpMemoryHeap7getBaseEv;
    _ZNK7android12BpMemoryHeap7getSizeEv;
    _ZNK7android12BpMemoryHeap8getFlagsEv;
    _ZNK7android12BpMemoryHeap9getHeapIDEv;
    _ZNK7android12BpMemoryHeap9getOffsetEv;
    _ZNK7android12MemoryDealer4dumpEPKc;
    _ZNK7android12MemoryDealer4heapEv;
    _ZNK7android12MemoryDealer9allocatorEv;
    _ZNK7android12SortedVectorINS_15PermissionCache5EntryEE10do_compareEPKvS5_;
    _ZNK7android12SortedVectorINS_15PermissionCache5EntryEE10do_destroyEPvm;
    _ZNK7android12SortedVectorINS_15PermissionCache5EntryEE12do_constructEPvm;
    _ZNK7android12SortedVectorINS_15PermissionCache5EntryEE15do_move_forwardEPvPKvm;
    _ZNK7android12SortedVectorINS_15PermissionCache5EntryEE16do_move_backwardEPvPKvm;
    _ZNK7android12SortedVectorINS_15PermissionCache5EntryEE7do_copyEPvPKvm;
    _ZNK7android12SortedVectorINS_15PermissionCache5EntryEE8do_splatEPvPKvm;
    _ZNK7android12SortedVectorINS_16key_value_pair_tINS_2wpINS_7IBinderEEENS_9HeapCache11heap_info_tEEEE10do_compareEPKvSA_;
    _ZNK7android12SortedVectorINS_16key_value_pair_tINS_2wpINS_7IBinderEEENS_9HeapCache11heap_info_tEEEE10do_destroyEPvm;
    _ZNK7android12SortedVectorINS_16key_value_pair_tINS_2wpINS_7IBinderEEENS_9HeapCache11heap_info_tEEEE12do_constructEPvm;
    _ZNK7android12SortedVectorINS_16key_value_pair_tINS_2wpINS_7IBinderEEENS_9HeapCache11heap_info_tEEEE15do_move_forwardEPvPKvm;
    _ZNK7android12SortedVectorINS_16key_value_pair_tINS_2wpINS_7IBinderEEENS_9HeapCache11heap_info_tEEEE16do_move_backwardEPvPKvm;
    _ZNK7android12SortedVectorINS_16key_value_pair_tINS_2wpINS_7IBinderEEENS_9HeapCache11heap_info_tEEEE7do_copyEPvPKvm;
    _ZNK7android12SortedVectorINS_16key_value_pair_tINS_2wpINS_7IBinderEEENS_9HeapCache11heap_info_tEEEE8do_splatEPvPKvm;
    _ZNK7android12SortedVectorINS_16key_value_pair_tIPKvNS_8BpBinder13ObjectManager7entry_tEEEE10do_compareES3_S3_;
    _ZNK7android12SortedVectorINS_16key_value_pair_tIPKvNS_8BpBinder13ObjectManager7entry_tEEEE10do_destroyEPvm;
    _ZNK7android12SortedVectorINS_16key_value_pair_tIPKvNS_8BpBinder13ObjectManager7entry_tEEEE12do_constructEPvm;
    _ZNK7android12SortedVectorINS_16key_value_pair_tIPKvNS_8BpBinder13ObjectManager7entry_tEEEE15do_move_forwardEPvS3_m;
    _ZNK7android12SortedVectorINS_16key_value_pair_tIPKvNS_8BpBinder13ObjectManager7entry_tEEEE16do_move_backwardEPvS3_m;
    _ZNK7android12SortedVectorINS_16key_value_pair_tIPKvNS_8BpBinder13ObjectManager7entry_tEEEE7do_copyEPvS3_m;
    _ZNK7android12SortedVectorINS_16key_value_pair_tIPKvNS_8BpBinder13ObjectManager7entry_tEEEE8do_splatEPvS3_m;
    _ZNK7android12SortedVectorINS_8String16EE10do_compareEPKvS4_;
    _ZNK7android12SortedVectorINS_8String16EE10do_destroyEPvm;
    _ZNK7android12SortedVectorINS_8String16EE12do_constructEPvm;
    _ZNK7android12SortedVectorINS_8String16EE15do_move_forwardEPvPKvm;
    _ZNK7android12SortedVectorINS_8String16EE16do_move_backwardEPvPKvm;
    _ZNK7android12SortedVectorINS_8String16EE7do_copyEPvPKvm;
    _ZNK7android12SortedVectorINS_8String16EE8do_splatEPvPKvm;
    _ZNK7android14IPCThreadState13getCallingPidEv;
    _ZNK7android14IPCThreadState13getCallingSidEv;
    _ZNK7android14IPCThreadState13getCallingUidEv;
    _ZNK7android14IPCThreadState18getCallRestrictionEv;
    _ZNK7android14IPCThreadState19getStrictModePolicyEv;
    _ZNK7android14IPCThreadState22getServingStackPointerEv;
    _ZNK7android14IPCThreadState23getCallingWorkSourceUidEv;
    _ZNK7android14IPCThreadState25shouldPropagateWorkSourceEv;
    _ZNK7android14IPCThreadState29getLastTransactionBinderFlagsEv;
    _ZNK7android14IShellCallback22getInterfaceDescriptorEv;
    _ZNK7android14MemoryHeapBase7getBaseEv;
    _ZNK7android14MemoryHeapBase7getSizeEv;
    _ZNK7android14MemoryHeapBase8getFlagsEv;
    _ZNK7android14MemoryHeapBase9getDeviceEv;
    _ZNK7android14MemoryHeapBase9getHeapIDEv;
    _ZNK7android14MemoryHeapBase9getOffsetEv;
    _ZNK7android15IResultReceiver22getInterfaceDescriptorEv;
    _ZNK7android15IServiceManager22getInterfaceDescriptorEv;
    _ZNK7android15PermissionCache5checkEPbRKNS_8String16Ej;
    _ZNK7android18BufferedTextOutput9getBufferEv;
    _ZNK7android18ServiceManagerShim10getServiceERKNS_8String16E;
    _ZNK7android18ServiceManagerShim12checkServiceERKNS_8String16E;
    _ZNK7android21IPermissionController22getInterfaceDescriptorEv;
    _ZNK7android22SimpleBestFitAllocator4dumpEPKc;
    _ZNK7android22SimpleBestFitAllocator4dumpERNS_7String8EPKc;
    _ZNK7android22SimpleBestFitAllocator4sizeEv;
    _ZNK7android22SimpleBestFitAllocator6dump_lEPKc;
    _ZNK7android22SimpleBestFitAllocator6dump_lERNS_7String8EPKc;
    _ZNK7android2os15IClientCallback22getInterfaceDescriptorEv;
    _ZNK7android2os15IServiceManager22getInterfaceDescriptorEv;
    _ZNK7android2os16IServiceCallback22getInterfaceDescriptorEv;
    _ZNK7android2os16ParcelableHolder13writeToParcelEPNS_6ParcelE;
    _ZNK7android2os16ServiceDebugInfo13writeToParcelEPNS_6ParcelE;
    _ZNK7android2os17PersistableBundle10getBooleanERKNS_8String16EPb;
    _ZNK7android2os17PersistableBundle10getIntKeysEv;
    _ZNK7android2os17PersistableBundle11getLongKeysEv;
    _ZNK7android2os17PersistableBundle12getIntVectorERKNS_8String16EPNSt3__16vectorIiNS5_9allocatorIiEEEE;
    _ZNK7android2os17PersistableBundle13getDoubleKeysEv;
    _ZNK7android2os17PersistableBundle13getLongVectorERKNS_8String16EPNSt3__16vectorIlNS5_9allocatorIlEEEE;
    _ZNK7android2os17PersistableBundle13getStringKeysEv;
    _ZNK7android2os17PersistableBundle13writeToParcelEPNS_6ParcelE;
    _ZNK7android2os17PersistableBundle14getBooleanKeysEv;
    _ZNK7android2os17PersistableBundle15getDoubleVectorERKNS_8String16EPNSt3__16vectorIdNS5_9allocatorIdEEEE;
    _ZNK7android2os17PersistableBundle15getStringVectorERKNS_8String16EPNSt3__16vectorIS2_NS5_9allocatorIS2_EEEE;
    _ZNK7android2os17PersistableBundle16getBooleanVectorERKNS_8String16EPNSt3__16vectorIbNS5_9allocatorIbEEEE;
    _ZNK7android2os17PersistableBundle16getIntVectorKeysEv;
    _ZNK7android2os17PersistableBundle17getLongVectorKeysEv;
    _ZNK7android2os17PersistableBundle18writeToParcelInnerEPNS_6ParcelE;
    _ZNK7android2os17PersistableBundle19getDoubleVectorKeysEv;
    _ZNK7android2os17PersistableBundle19getStringVectorKeysEv;
    _ZNK7android2os17PersistableBundle20getBooleanVectorKeysEv;
    _ZNK7android2os17PersistableBundle20getPersistableBundleERKNS_8String16EPS1_;
    _ZNK7android2os17PersistableBundle24getPersistableBundleKeysEv;
    _ZNK7android2os17PersistableBundle4sizeEv;
    _ZNK7android2os17PersistableBundle5emptyEv;
    _ZNK7android2os17PersistableBundle6getIntERKNS_8String16EPi;
    _ZNK7android2os17PersistableBundle7getLongERKNS_8String16EPl;
    _ZNK7android2os17PersistableBundle9getDoubleERKNS_8String16EPd;
    _ZNK7android2os17PersistableBundle9getStringERKNS_8String16EPS2_;
    _ZNK7android2os20ParcelFileDescriptor13writeToParcelEPNS_6ParcelE;
    _ZNK7android6binder6Status13writeToParcelEPNS_6ParcelE;
    _ZNK7android6binder6Status9toString8Ev;
    _ZNK7android6Parcel10errorCheckEv;
    _ZNK7android6Parcel10ipcObjectsEv;
    _ZNK7android6Parcel10readDoubleEPd;
    _ZNK7android6Parcel10readDoubleEv;
    _ZNK7android6Parcel10readObjectEb;
    _ZNK7android6Parcel10readUint32EPj;
    _ZNK7android6Parcel10readUint32Ev;
    _ZNK7android6Parcel10readUint64EPm;
    _ZNK7android6Parcel10readUint64Ev;
    _ZNK7android6Parcel10scanForFdsEv;
    _ZNK7android6Parcel11ipcDataSizeEv;
    _ZNK7android6Parcel11readCStringEv;
    _ZNK7android6Parcel11readInplaceEm;
    _ZNK7android6Parcel11readPointerEPm;
    _ZNK7android6Parcel11readPointerEv;
    _ZNK7android6Parcel11readString8EPNS_7String8E;
    _ZNK7android6Parcel11readString8Ev;
    _ZNK7android6Parcel12dataCapacityEv;
    _ZNK7android6Parcel12dataPositionEv;
    _ZNK7android6Parcel12objectsCountEv;
    _ZNK7android6Parcel12readString16EPNS_8String16E;
    _ZNK7android6Parcel12readString16EPNSt3__110unique_ptrINS_8String16ENS1_14default_deleteIS3_EEEE;
    _ZNK7android6Parcel12readString16EPNSt3__18optionalINS_8String16EEE;
    _ZNK7android6Parcel12readString16Ev;
    _ZNK7android6Parcel13markSensitiveEv;
    _ZNK7android6Parcel14checkInterfaceEPNS_7IBinderE;
    _ZNK7android6Parcel14readBoolVectorEPNSt3__110unique_ptrINS1_6vectorIbNS1_9allocatorIbEEEENS1_14default_deleteIS6_EEEE;
    _ZNK7android6Parcel14readBoolVectorEPNSt3__16vectorIbNS1_9allocatorIbEEEE;
    _ZNK7android6Parcel14readBoolVectorEPNSt3__18optionalINS1_6vectorIbNS1_9allocatorIbEEEEEE;
    _ZNK7android6Parcel14readByteVectorEPNSt3__110unique_ptrINS1_6vectorIaNS1_9allocatorIaEEEENS1_14default_deleteIS6_EEEE;
    _ZNK7android6Parcel14readByteVectorEPNSt3__110unique_ptrINS1_6vectorIhNS1_9allocatorIhEEEENS1_14default_deleteIS6_EEEE;
    _ZNK7android6Parcel14readByteVectorEPNSt3__16vectorIaNS1_9allocatorIaEEEE;
    _ZNK7android6Parcel14readByteVectorEPNSt3__16vectorIhNS1_9allocatorIhEEEE;
    _ZNK7android6Parcel14readByteVectorEPNSt3__18optionalINS1_6vectorIaNS1_9allocatorIaEEEEEE;
    _ZNK7android6Parcel14readByteVectorEPNSt3__18optionalINS1_6vectorIhNS1_9allocatorIhEEEEEE;
    _ZNK7android6Parcel14readCharVectorEPNSt3__110unique_ptrINS1_6vectorIDsNS1_9allocatorIDsEEEENS1_14default_deleteIS6_EEEE;
    _ZNK7android6Parcel14readCharVectorEPNSt3__16vectorIDsNS1_9allocatorIDsEEEE;
    _ZNK7android6Parcel14readCharVectorEPNSt3__18optionalINS1_6vectorIDsNS1_9allocatorIDsEEEEEE;
    _ZNK7android6Parcel14readParcelableEPNS_10ParcelableE;
    _ZNK7android6Parcel15ipcObjectsCountEv;
    _ZNK7android6Parcel15readFloatVectorEPNSt3__110unique_ptrINS1_6vectorIfNS1_9allocatorIfEEEENS1_14default_deleteIS6_EEEE;
    _ZNK7android6Parcel15readFloatVectorEPNSt3__16vectorIfNS1_9allocatorIfEEEE;
    _ZNK7android6Parcel15readFloatVectorEPNSt3__18optionalINS1_6vectorIfNS1_9allocatorIfEEEEEE;
    _ZNK7android6Parcel15readInt32VectorEPNSt3__110unique_ptrINS1_6vectorIiNS1_9allocatorIiEEEENS1_14default_deleteIS6_EEEE;
    _ZNK7android6Parcel15readInt32VectorEPNSt3__16vectorIiNS1_9allocatorIiEEEE;
    _ZNK7android6Parcel15readInt32VectorEPNSt3__18optionalINS1_6vectorIiNS1_9allocatorIiEEEEEE;
    _ZNK7android6Parcel15readInt64VectorEPNSt3__110unique_ptrINS1_6vectorIlNS1_9allocatorIlEEEENS1_14default_deleteIS6_EEEE;
    _ZNK7android6Parcel15readInt64VectorEPNSt3__16vectorIlNS1_9allocatorIlEEEE;
    _ZNK7android6Parcel15readInt64VectorEPNSt3__18optionalINS1_6vectorIlNS1_9allocatorIlEEEEEE;
    _ZNK7android6Parcel15setDataPositionEm;
    _ZNK7android6Parcel15unflattenBinderEPNS_2spINS_7IBinderEEE;
    _ZNK7android6Parcel16enforceInterfaceEPKDsmPNS_14IPCThreadStateE;
    _ZNK7android6Parcel16enforceInterfaceERKNS_8String16EPNS_14IPCThreadStateE;
    _ZNK7android6Parcel16readDoubleVectorEPNSt3__110unique_ptrINS1_6vectorIdNS1_9allocatorIdEEEENS1_14default_deleteIS6_EEEE;
    _ZNK7android6Parcel16readDoubleVectorEPNSt3__16vectorIdNS1_9allocatorIdEEEE;
    _ZNK7android6Parcel16readDoubleVectorEPNSt3__18optionalINS1_6vectorIdNS1_9allocatorIdEEEEEE;
    _ZNK7android6Parcel16readNativeHandleEv;
    _ZNK7android6Parcel16readStrongBinderEPNS_2spINS_7IBinderEEE;
    _ZNK7android6Parcel16readStrongBinderEv;
    _ZNK7android6Parcel16readStrongBinderINS_2os15IClientCallbackEEEiPNS_2spIT_EE;
    _ZNK7android6Parcel16readStrongBinderINS_2os16IServiceCallbackEEEiPNS_2spIT_EE;
    _ZNK7android6Parcel16readStrongBinderINS_7content2pm22IPackageChangeObserverEEEiPNS_2spIT_EE;
    _ZNK7android6Parcel16readUint64VectorEPNSt3__110unique_ptrINS1_6vectorImNS1_9allocatorImEEEENS1_14default_deleteIS6_EEEE;
    _ZNK7android6Parcel16readUint64VectorEPNSt3__16vectorImNS1_9allocatorImEEEE;
    _ZNK7android6Parcel16readUint64VectorEPNSt3__18optionalINS1_6vectorImNS1_9allocatorImEEEEEE;
    _ZNK7android6Parcel16validateReadDataEm;
    _ZNK7android6Parcel17getBlobAshmemSizeEv;
    _ZNK7android6Parcel17getOpenAshmemSizeEv;
    _ZNK7android6Parcel17readExceptionCodeEv;
    _ZNK7android6Parcel17readUtf8FromUtf16EPNSt3__110unique_ptrINS1_12basic_stringIcNS1_11char_traitsIcEENS1_9allocatorIcEEEENS1_14default_deleteIS8_EEEE;
    _ZNK7android6Parcel17readUtf8FromUtf16EPNSt3__112basic_stringIcNS1_11char_traitsIcEENS1_9allocatorIcEEEE;
    _ZNK7android6Parcel17readUtf8FromUtf16EPNSt3__18optionalINS1_12basic_stringIcNS1_11char_traitsIcEENS1_9allocatorIcEEEEEE;
    _ZNK7android6Parcel18hasFileDescriptorsEv;
    _ZNK7android6Parcel18readFileDescriptorEv;
    _ZNK7android6Parcel18readString16VectorEPNSt3__110unique_ptrINS1_6vectorINS2_INS_8String16ENS1_14default_deleteIS4_EEEENS1_9allocatorIS7_EEEENS5_ISA_EEEE;
    _ZNK7android6Parcel18readString16VectorEPNSt3__16vectorINS_8String16ENS1_9allocatorIS3_EEEE;
    _ZNK7android6Parcel18readString16VectorEPNSt3__18optionalINS1_6vectorINS2_INS_8String16EEENS1_9allocatorIS5_EEEEEE;
    _ZNK7android6Parcel18readString8InplaceEPm;
    _ZNK7android6Parcel19readString16InplaceEPm;
    _ZNK7android6Parcel21finishUnflattenBinderERKNS_2spINS_7IBinderEEEPS3_;
    _ZNK7android6Parcel22readStrongBinderVectorEPNSt3__110unique_ptrINS1_6vectorINS_2spINS_7IBinderEEENS1_9allocatorIS6_EEEENS1_14default_deleteIS9_EEEE;
    _ZNK7android6Parcel22readStrongBinderVectorEPNSt3__16vectorINS_2spINS_7IBinderEEENS1_9allocatorIS5_EEEE;
    _ZNK7android6Parcel22readStrongBinderVectorEPNSt3__18optionalINS1_6vectorINS_2spINS_7IBinderEEENS1_9allocatorIS6_EEEEEE;
    _ZNK7android6Parcel24readCallingWorkSourceUidEv;
    _ZNK7android6Parcel24readNullableStrongBinderEPNS_2spINS_7IBinderEEE;
    _ZNK7android6Parcel24readParcelFileDescriptorEv;
    _ZNK7android6Parcel24readUniqueFileDescriptorEPNS_4base14unique_fd_implINS1_13DefaultCloserEEE;
    _ZNK7android6Parcel29readUtf8VectorFromUtf16VectorEPNSt3__110unique_ptrINS1_6vectorINS2_INS1_12basic_stringIcNS1_11char_traitsIcEENS1_9allocatorIcEEEENS1_14default_deleteIS9_EEEENS7_ISC_EEEENSA_ISE_EEEE;
    _ZNK7android6Parcel29readUtf8VectorFromUtf16VectorEPNSt3__16vectorINS1_12basic_stringIcNS1_11char_traitsIcEENS1_9allocatorIcEEEENS6_IS8_EEEE;
    _ZNK7android6Parcel29readUtf8VectorFromUtf16VectorEPNSt3__18optionalINS1_6vectorINS2_INS1_12basic_stringIcNS1_11char_traitsIcEENS1_9allocatorIcEEEEEENS7_ISA_EEEEEE;
    _ZNK7android6Parcel30readUniqueFileDescriptorVectorEPNSt3__110unique_ptrINS1_6vectorINS_4base14unique_fd_implINS4_13DefaultCloserEEENS1_9allocatorIS7_EEEENS1_14default_deleteISA_EEEE;
    _ZNK7android6Parcel30readUniqueFileDescriptorVectorEPNSt3__16vectorINS_4base14unique_fd_implINS3_13DefaultCloserEEENS1_9allocatorIS6_EEEE;
    _ZNK7android6Parcel30readUniqueFileDescriptorVectorEPNSt3__18optionalINS1_6vectorINS_4base14unique_fd_implINS4_13DefaultCloserEEENS1_9allocatorIS7_EEEEEE;
    _ZNK7android6Parcel30readUniqueParcelFileDescriptorEPNS_4base14unique_fd_implINS1_13DefaultCloserEEE;
    _ZNK7android6Parcel37updateWorkSourceRequestHeaderPositionEv;
    _ZNK7android6Parcel4dataEv;
    _ZNK7android6Parcel4readEPvm;
    _ZNK7android6Parcel4readERNS0_26FlattenableHelperInterfaceE;
    _ZNK7android6Parcel5printERNS_10TextOutputEj;
    _ZNK7android6Parcel7ipcDataEv;
    _ZNK7android6Parcel8allowFdsEv;
    _ZNK7android6Parcel8dataSizeEv;
    _ZNK7android6Parcel8isForRpcEv;
    _ZNK7android6Parcel8readBlobEmPNS0_12ReadableBlobE;
    _ZNK7android6Parcel8readBoolEPb;
    _ZNK7android6Parcel8readBoolEv;
    _ZNK7android6Parcel8readByteEPa;
    _ZNK7android6Parcel8readByteEv;
    _ZNK7android6Parcel8readCharEPDs;
    _ZNK7android6Parcel8readCharEv;
    _ZNK7android6Parcel9dataAvailEv;
    _ZNK7android6Parcel9readFloatEPf;
    _ZNK7android6Parcel9readFloatEv;
    _ZNK7android6Parcel9readInt32EPi;
    _ZNK7android6Parcel9readInt32Ev;
    _ZNK7android6Parcel9readInt64EPl;
    _ZNK7android6Parcel9readInt64Ev;
    _ZNK7android6VectorIiE10do_destroyEPvm;
    _ZNK7android6VectorIiE12do_constructEPvm;
    _ZNK7android6VectorIiE15do_move_forwardEPvPKvm;
    _ZNK7android6VectorIiE16do_move_backwardEPvPKvm;
    _ZNK7android6VectorIiE7do_copyEPvPKvm;
    _ZNK7android6VectorIiE8do_splatEPvPKvm;
    _ZNK7android6VectorINS_12ProcessState12handle_entryEE10do_destroyEPvm;
    _ZNK7android6VectorINS_12ProcessState12handle_entryEE12do_constructEPvm;
    _ZNK7android6VectorINS_12ProcessState12handle_entryEE15do_move_forwardEPvPKvm;
    _ZNK7android6VectorINS_12ProcessState12handle_entryEE16do_move_backwardEPvPKvm;
    _ZNK7android6VectorINS_12ProcessState12handle_entryEE7do_copyEPvPKvm;
    _ZNK7android6VectorINS_12ProcessState12handle_entryEE8do_splatEPvPKvm;
    _ZNK7android6VectorINS_2spINS_18BufferedTextOutput11BufferStateEEEE10do_destroyEPvm;
    _ZNK7android6VectorINS_2spINS_18BufferedTextOutput11BufferStateEEEE12do_constructEPvm;
    _ZNK7android6VectorINS_2spINS_18BufferedTextOutput11BufferStateEEEE15do_move_forwardEPvPKvm;
    _ZNK7android6VectorINS_2spINS_18BufferedTextOutput11BufferStateEEEE16do_move_backwardEPvPKvm;
    _ZNK7android6VectorINS_2spINS_18BufferedTextOutput11BufferStateEEEE7do_copyEPvPKvm;
    _ZNK7android6VectorINS_2spINS_18BufferedTextOutput11BufferStateEEEE8do_splatEPvPKvm;
    _ZNK7android6VectorINS_8BpBinder8ObituaryEE10do_destroyEPvm;
    _ZNK7android6VectorINS_8BpBinder8ObituaryEE12do_constructEPvm;
    _ZNK7android6VectorINS_8BpBinder8ObituaryEE15do_move_forwardEPvPKvm;
    _ZNK7android6VectorINS_8BpBinder8ObituaryEE16do_move_backwardEPvPKvm;
    _ZNK7android6VectorINS_8BpBinder8ObituaryEE7do_copyEPvPKvm;
    _ZNK7android6VectorINS_8BpBinder8ObituaryEE8do_splatEPvPKvm;
    _ZNK7android6VectorINS_8String16EE10do_destroyEPvm;
    _ZNK7android6VectorINS_8String16EE12do_constructEPvm;
    _ZNK7android6VectorINS_8String16EE15do_move_forwardEPvPKvm;
    _ZNK7android6VectorINS_8String16EE16do_move_backwardEPvPKvm;
    _ZNK7android6VectorINS_8String16EE7do_copyEPvPKvm;
    _ZNK7android6VectorINS_8String16EE8do_splatEPvPKvm;
    _ZNK7android6VectorIPNS_7BBinderEE10do_destroyEPvm;
    _ZNK7android6VectorIPNS_7BBinderEE12do_constructEPvm;
    _ZNK7android6VectorIPNS_7BBinderEE15do_move_forwardEPvPKvm;
    _ZNK7android6VectorIPNS_7BBinderEE16do_move_backwardEPvPKvm;
    _ZNK7android6VectorIPNS_7BBinderEE7do_copyEPvPKvm;
    _ZNK7android6VectorIPNS_7BBinderEE8do_splatEPvPKvm;
    _ZNK7android6VectorIPNS_7RefBase12weakref_typeEE10do_destroyEPvm;
    _ZNK7android6VectorIPNS_7RefBase12weakref_typeEE12do_constructEPvm;
    _ZNK7android6VectorIPNS_7RefBase12weakref_typeEE15do_move_forwardEPvPKvm;
    _ZNK7android6VectorIPNS_7RefBase12weakref_typeEE16do_move_backwardEPvPKvm;
    _ZNK7android6VectorIPNS_7RefBase12weakref_typeEE7do_copyEPvPKvm;
    _ZNK7android6VectorIPNS_7RefBase12weakref_typeEE8do_splatEPvPKvm;
    _ZNK7android6VectorIPNS_7RefBaseEE10do_destroyEPvm;
    _ZNK7android6VectorIPNS_7RefBaseEE12do_constructEPvm;
    _ZNK7android6VectorIPNS_7RefBaseEE15do_move_forwardEPvPKvm;
    _ZNK7android6VectorIPNS_7RefBaseEE16do_move_backwardEPvPKvm;
    _ZNK7android6VectorIPNS_7RefBaseEE7do_copyEPvPKvm;
    _ZNK7android6VectorIPNS_7RefBaseEE8do_splatEPvPKvm;
    _ZNK7android7BBinder10findObjectEPKv;
    _ZNK7android7BBinder13isBinderAliveEv;
    _ZNK7android7BBinder22getInterfaceDescriptorEv;
    _ZNK7android7content2pm18PackageChangeEvent13writeToParcelEPNS_6ParcelE;
    _ZNK7android7content2pm21IPackageManagerNative22getInterfaceDescriptorEv;
    _ZNK7android7content2pm22IPackageChangeObserver22getInterfaceDescriptorEv;
    _ZNK7android7IBinder13checkSubclassEPKv;
    _ZNK7android7IMemory11fastPointerERKNS_2spINS_7IBinderEEEl;
    _ZNK7android7IMemory15unsecurePointerEv;
    _ZNK7android7IMemory22getInterfaceDescriptorEv;
    _ZNK7android7IMemory4sizeEv;
    _ZNK7android7IMemory6offsetEv;
    _ZNK7android7IMemory7pointerEv;
    _ZNK7android8BpBinder10findObjectEPKv;
    _ZNK7android8BpBinder10rpcAddressEv;
    _ZNK7android8BpBinder10rpcSessionEv;
    _ZNK7android8BpBinder11isRpcBinderEv;
    _ZNK7android8BpBinder12binderHandleEv;
    _ZNK7android8BpBinder13isBinderAliveEv;
    _ZNK7android8BpBinder13ObjectManager4findEPKv;
    _ZNK7android8BpBinder18isDescriptorCachedEv;
    _ZNK7android8BpBinder22getInterfaceDescriptorEv;
    _ZNK7android8BpMemory9getMemoryEPlPm;
    _ZTCN7android10AllocationE0_NS_10IInterfaceE;
    _ZTCN7android10AllocationE0_NS_10MemoryBaseE;
    _ZTCN7android10AllocationE0_NS_11BnInterfaceINS_7IMemoryEEE;
    _ZTCN7android10AllocationE0_NS_7IMemoryE;
    _ZTCN7android10AllocationE0_NS_8BnMemoryE;
    _ZTCN7android10AllocationE8_NS_7BBinderE;
    _ZTCN7android10AllocationE8_NS_7IBinderE;
    _ZTCN7android10MemoryBaseE0_NS_10IInterfaceE;
    _ZTCN7android10MemoryBaseE0_NS_11BnInterfaceINS_7IMemoryEEE;
    _ZTCN7android10MemoryBaseE0_NS_7IMemoryE;
    _ZTCN7android10MemoryBaseE0_NS_8BnMemoryE;
    _ZTCN7android10MemoryBaseE8_NS_7BBinderE;
    _ZTCN7android10MemoryBaseE8_NS_7IBinderE;
    _ZTCN7android10PoolThreadE0_NS_6ThreadE;
    _ZTCN7android11IMemoryHeapE0_NS_10IInterfaceE;
    _ZTCN7android12BnMemoryHeapE0_NS_10IInterfaceE;
    _ZTCN7android12BnMemoryHeapE0_NS_11BnInterfaceINS_11IMemoryHeapEEE;
    _ZTCN7android12BnMemoryHeapE0_NS_11IMemoryHeapE;
    _ZTCN7android12BnMemoryHeapE8_NS_7BBinderE;
    _ZTCN7android12BnMemoryHeapE8_NS_7IBinderE;
    _ZTCN7android12BpMemoryHeapE0_NS_10IInterfaceE;
    _ZTCN7android12BpMemoryHeapE0_NS_11BpInterfaceINS_11IMemoryHeapEEE;
    _ZTCN7android12BpMemoryHeapE0_NS_11IMemoryHeapE;
    _ZTCN7android12BpMemoryHeapE8_NS_9BpRefBaseE;
    _ZTCN7android14IShellCallbackE0_NS_10IInterfaceE;
    _ZTCN7android14MemoryHeapBaseE64_NS_10IInterfaceE;
    _ZTCN7android14MemoryHeapBaseE64_NS_11BnInterfaceINS_11IMemoryHeapEEE;
    _ZTCN7android14MemoryHeapBaseE64_NS_11IMemoryHeapE;
    _ZTCN7android14MemoryHeapBaseE64_NS_12BnMemoryHeapE;
    _ZTCN7android14MemoryHeapBaseE72_NS_7BBinderE;
    _ZTCN7android14MemoryHeapBaseE72_NS_7IBinderE;
    _ZTCN7android15BnShellCallbackE0_NS_10IInterfaceE;
    _ZTCN7android15BnShellCallbackE0_NS_11BnInterfaceINS_14IShellCallbackEEE;
    _ZTCN7android15BnShellCallbackE0_NS_14IShellCallbackE;
    _ZTCN7android15BnShellCallbackE8_NS_7BBinderE;
    _ZTCN7android15BnShellCallbackE8_NS_7IBinderE;
    _ZTCN7android15BpShellCallbackE0_NS_10IInterfaceE;
    _ZTCN7android15BpShellCallbackE0_NS_11BpInterfaceINS_14IShellCallbackEEE;
    _ZTCN7android15BpShellCallbackE0_NS_14IShellCallbackE;
    _ZTCN7android15BpShellCallbackE8_NS_9BpRefBaseE;
    _ZTCN7android15IResultReceiverE0_NS_10IInterfaceE;
    _ZTCN7android15IServiceManagerE0_NS_10IInterfaceE;
    _ZTCN7android16BnResultReceiverE0_NS_10IInterfaceE;
    _ZTCN7android16BnResultReceiverE0_NS_11BnInterfaceINS_15IResultReceiverEEE;
    _ZTCN7android16BnResultReceiverE0_NS_15IResultReceiverE;
    _ZTCN7android16BnResultReceiverE8_NS_7BBinderE;
    _ZTCN7android16BnResultReceiverE8_NS_7IBinderE;
    _ZTCN7android16BpResultReceiverE0_NS_10IInterfaceE;
    _ZTCN7android16BpResultReceiverE0_NS_11BpInterfaceINS_15IResultReceiverEEE;
    _ZTCN7android16BpResultReceiverE0_NS_15IResultReceiverE;
    _ZTCN7android16BpResultReceiverE8_NS_9BpRefBaseE;
    _ZTCN7android18ServiceManagerShimE0_NS_10IInterfaceE;
    _ZTCN7android18ServiceManagerShimE0_NS_15IServiceManagerE;
    _ZTCN7android21IPermissionControllerE0_NS_10IInterfaceE;
    _ZTCN7android22BnPermissionControllerE0_NS_10IInterfaceE;
    _ZTCN7android22BnPermissionControllerE0_NS_11BnInterfaceINS_21IPermissionControllerEEE;
    _ZTCN7android22BnPermissionControllerE0_NS_21IPermissionControllerE;
    _ZTCN7android22BnPermissionControllerE8_NS_7BBinderE;
    _ZTCN7android22BnPermissionControllerE8_NS_7IBinderE;
    _ZTCN7android22BpPermissionControllerE0_NS_10IInterfaceE;
    _ZTCN7android22BpPermissionControllerE0_NS_11BpInterfaceINS_21IPermissionControllerEEE;
    _ZTCN7android22BpPermissionControllerE0_NS_21IPermissionControllerE;
    _ZTCN7android22BpPermissionControllerE8_NS_9BpRefBaseE;
    _ZTCN7android2os15IClientCallbackE0_NS_10IInterfaceE;
    _ZTCN7android2os15IServiceManagerE0_NS_10IInterfaceE;
    _ZTCN7android2os16BnClientCallbackE0_NS0_15IClientCallbackE;
    _ZTCN7android2os16BnClientCallbackE0_NS_10IInterfaceE;
    _ZTCN7android2os16BnClientCallbackE0_NS_11BnInterfaceINS0_15IClientCallbackEEE;
    _ZTCN7android2os16BnClientCallbackE8_NS_7BBinderE;
    _ZTCN7android2os16BnClientCallbackE8_NS_7IBinderE;
    _ZTCN7android2os16BnServiceManagerE0_NS0_15IServiceManagerE;
    _ZTCN7android2os16BnServiceManagerE0_NS_10IInterfaceE;
    _ZTCN7android2os16BnServiceManagerE0_NS_11BnInterfaceINS0_15IServiceManagerEEE;
    _ZTCN7android2os16BnServiceManagerE8_NS_7BBinderE;
    _ZTCN7android2os16BnServiceManagerE8_NS_7IBinderE;
    _ZTCN7android2os16BpClientCallbackE0_NS0_15IClientCallbackE;
    _ZTCN7android2os16BpClientCallbackE0_NS_10IInterfaceE;
    _ZTCN7android2os16BpClientCallbackE0_NS_11BpInterfaceINS0_15IClientCallbackEEE;
    _ZTCN7android2os16BpClientCallbackE8_NS_9BpRefBaseE;
    _ZTCN7android2os16BpServiceManagerE0_NS0_15IServiceManagerE;
    _ZTCN7android2os16BpServiceManagerE0_NS_10IInterfaceE;
    _ZTCN7android2os16BpServiceManagerE0_NS_11BpInterfaceINS0_15IServiceManagerEEE;
    _ZTCN7android2os16BpServiceManagerE8_NS_9BpRefBaseE;
    _ZTCN7android2os16IServiceCallbackE0_NS_10IInterfaceE;
    _ZTCN7android2os17BnServiceCallbackE0_NS0_16IServiceCallbackE;
    _ZTCN7android2os17BnServiceCallbackE0_NS_10IInterfaceE;
    _ZTCN7android2os17BnServiceCallbackE0_NS_11BnInterfaceINS0_16IServiceCallbackEEE;
    _ZTCN7android2os17BnServiceCallbackE8_NS_7BBinderE;
    _ZTCN7android2os17BnServiceCallbackE8_NS_7IBinderE;
    _ZTCN7android2os17BpServiceCallbackE0_NS0_16IServiceCallbackE;
    _ZTCN7android2os17BpServiceCallbackE0_NS_10IInterfaceE;
    _ZTCN7android2os17BpServiceCallbackE0_NS_11BpInterfaceINS0_16IServiceCallbackEEE;
    _ZTCN7android2os17BpServiceCallbackE8_NS_9BpRefBaseE;
    _ZTCN7android7BBinderE0_NS_7IBinderE;
    _ZTCN7android7content2pm21IPackageManagerNativeE0_NS_10IInterfaceE;
    _ZTCN7android7content2pm22BnPackageManagerNativeE0_NS_10IInterfaceE;
    _ZTCN7android7content2pm22BnPackageManagerNativeE0_NS_11BnInterfaceINS1_21IPackageManagerNativeEEE;
    _ZTCN7android7content2pm22BnPackageManagerNativeE0_NS1_21IPackageManagerNativeE;
    _ZTCN7android7content2pm22BnPackageManagerNativeE8_NS_7BBinderE;
    _ZTCN7android7content2pm22BnPackageManagerNativeE8_NS_7IBinderE;
    _ZTCN7android7content2pm22BpPackageManagerNativeE0_NS_10IInterfaceE;
    _ZTCN7android7content2pm22BpPackageManagerNativeE0_NS_11BpInterfaceINS1_21IPackageManagerNativeEEE;
    _ZTCN7android7content2pm22BpPackageManagerNativeE0_NS1_21IPackageManagerNativeE;
    _ZTCN7android7content2pm22BpPackageManagerNativeE8_NS_9BpRefBaseE;
    _ZTCN7android7content2pm22IPackageChangeObserverE0_NS_10IInterfaceE;
    _ZTCN7android7content2pm23BnPackageChangeObserverE0_NS_10IInterfaceE;
    _ZTCN7android7content2pm23BnPackageChangeObserverE0_NS_11BnInterfaceINS1_22IPackageChangeObserverEEE;
    _ZTCN7android7content2pm23BnPackageChangeObserverE0_NS1_22IPackageChangeObserverE;
    _ZTCN7android7content2pm23BnPackageChangeObserverE8_NS_7BBinderE;
    _ZTCN7android7content2pm23BnPackageChangeObserverE8_NS_7IBinderE;
    _ZTCN7android7content2pm23BpPackageChangeObserverE0_NS_10IInterfaceE;
    _ZTCN7android7content2pm23BpPackageChangeObserverE0_NS_11BpInterfaceINS1_22IPackageChangeObserverEEE;
    _ZTCN7android7content2pm23BpPackageChangeObserverE0_NS1_22IPackageChangeObserverE;
    _ZTCN7android7content2pm23BpPackageChangeObserverE8_NS_9BpRefBaseE;
    _ZTCN7android7IMemoryE0_NS_10IInterfaceE;
    _ZTCN7android8BnMemoryE0_NS_10IInterfaceE;
    _ZTCN7android8BnMemoryE0_NS_11BnInterfaceINS_7IMemoryEEE;
    _ZTCN7android8BnMemoryE0_NS_7IMemoryE;
    _ZTCN7android8BnMemoryE8_NS_7BBinderE;
    _ZTCN7android8BnMemoryE8_NS_7IBinderE;
    _ZTCN7android8BpBinderE0_NS_7IBinderE;
    _ZTCN7android8BpMemoryE0_NS_10IInterfaceE;
    _ZTCN7android8BpMemoryE0_NS_11BpInterfaceINS_7IMemoryEEE;
    _ZTCN7android8BpMemoryE0_NS_7IMemoryE;
    _ZTCN7android8BpMemoryE8_NS_9BpRefBaseE;
    _ZTCN7android9HeapCacheE0_NS_7IBinder14DeathRecipientE;
    _ZTCNSt3__118basic_stringstreamIcNS_11char_traitsIcEENS_9allocatorIcEEEE0_NS_13basic_istreamIcS2_EE;
    _ZTCNSt3__118basic_stringstreamIcNS_11char_traitsIcEENS_9allocatorIcEEEE0_NS_14basic_iostreamIcS2_EE;
    _ZTCNSt3__118basic_stringstreamIcNS_11char_traitsIcEENS_9allocatorIcEEEE16_NS_13basic_ostreamIcS2_EE;
    _ZThn8_N7android10AllocationD0Ev;
    _ZThn8_N7android10AllocationD1Ev;
    _ZThn8_N7android10MemoryBaseD0Ev;
    _ZThn8_N7android10MemoryBaseD1Ev;
    _ZThn8_N7android12BnMemoryHeap10onTransactEjRKNS_6ParcelEPS1_j;
    _ZThn8_N7android12BnMemoryHeapD0Ev;
    _ZThn8_N7android12BnMemoryHeapD1Ev;
    _ZThn8_N7android12BpMemoryHeapD0Ev;
    _ZThn8_N7android12BpMemoryHeapD1Ev;
    _ZThn8_N7android15BnShellCallback10onTransactEjRKNS_6ParcelEPS1_j;
    _ZThn8_N7android16BnResultReceiver10onTransactEjRKNS_6ParcelEPS1_j;
    _ZThn8_N7android22BnPermissionController10onTransactEjRKNS_6ParcelEPS1_j;
    _ZThn8_N7android2os16BnClientCallback10onTransactEjRKNS_6ParcelEPS2_j;
    _ZThn8_N7android2os16BnServiceManager10onTransactEjRKNS_6ParcelEPS2_j;
    _ZThn8_N7android2os17BnServiceCallback10onTransactEjRKNS_6ParcelEPS2_j;
    _ZThn8_N7android7content2pm22BnPackageManagerNative10onTransactEjRKNS_6ParcelEPS3_j;
    _ZThn8_N7android7content2pm23BnPackageChangeObserver10onTransactEjRKNS_6ParcelEPS3_j;
    _ZThn8_N7android8BnMemory10onTransactEjRKNS_6ParcelEPS1_j;
    _ZThn8_N7android8BnMemoryD0Ev;
    _ZThn8_N7android8BnMemoryD1Ev;
    _ZThn8_N7android8BpMemoryD0Ev;
    _ZThn8_N7android8BpMemoryD1Ev;
    _ZTTN7android10AllocationE;
    _ZTTN7android10IInterfaceE;
    _ZTTN7android10MemoryBaseE;
    _ZTTN7android10PoolThreadE;
    _ZTTN7android10RpcSessionE;
    _ZTTN7android11IMemoryHeapE;
    _ZTTN7android12BnMemoryHeapE;
    _ZTTN7android12BpMemoryHeapE;
    _ZTTN7android12ProcessStateE;
    _ZTTN7android14IShellCallbackE;
    _ZTTN7android14MemoryHeapBaseE;
    _ZTTN7android15BnShellCallbackE;
    _ZTTN7android15BpShellCallbackE;
    _ZTTN7android15IResultReceiverE;
    _ZTTN7android15IServiceManagerE;
    _ZTTN7android16BnResultReceiverE;
    _ZTTN7android16BpResultReceiverE;
    _ZTTN7android18ServiceManagerShimE;
    _ZTTN7android21IPermissionControllerE;
    _ZTTN7android22BnPermissionControllerE;
    _ZTTN7android22BpPermissionControllerE;
    _ZTTN7android2os15IClientCallbackE;
    _ZTTN7android2os15IServiceManagerE;
    _ZTTN7android2os16BnClientCallbackE;
    _ZTTN7android2os16BnServiceManagerE;
    _ZTTN7android2os16BpClientCallbackE;
    _ZTTN7android2os16BpServiceManagerE;
    _ZTTN7android2os16IServiceCallbackE;
    _ZTTN7android2os17BnServiceCallbackE;
    _ZTTN7android2os17BpServiceCallbackE;
    _ZTTN7android7BBinderE;
    _ZTTN7android7content2pm21IPackageManagerNativeE;
    _ZTTN7android7content2pm22BnPackageManagerNativeE;
    _ZTTN7android7content2pm22BpPackageManagerNativeE;
    _ZTTN7android7content2pm22IPackageChangeObserverE;
    _ZTTN7android7content2pm23BnPackageChangeObserverE;
    _ZTTN7android7content2pm23BpPackageChangeObserverE;
    _ZTTN7android7IBinderE;
    _ZTTN7android7IMemoryE;
    _ZTTN7android8BnMemoryE;
    _ZTTN7android8BpBinderE;
    _ZTTN7android8BpMemoryE;
    _ZTTN7android9BpRefBaseE;
    _ZTTN7android9HeapCacheE;
    _ZTTN7android9RpcServerE;
    _ZTTNSt3__118basic_stringstreamIcNS_11char_traitsIcEENS_9allocatorIcEEEE;
    _ZTv0_n24_N7android10AllocationD0Ev;
    _ZTv0_n24_N7android10AllocationD1Ev;
    _ZTv0_n24_N7android10IInterfaceD0Ev;
    _ZTv0_n24_N7android10IInterfaceD1Ev;
    _ZTv0_n24_N7android10MemoryBaseD0Ev;
    _ZTv0_n24_N7android10MemoryBaseD1Ev;
    _ZTv0_n24_N7android10RpcSessionD0Ev;
    _ZTv0_n24_N7android10RpcSessionD1Ev;
    _ZTv0_n24_N7android11IMemoryHeapD0Ev;
    _ZTv0_n24_N7android11IMemoryHeapD1Ev;
    _ZTv0_n24_N7android12BnMemoryHeapD0Ev;
    _ZTv0_n24_N7android12BnMemoryHeapD1Ev;
    _ZTv0_n24_N7android12BpMemoryHeapD0Ev;
    _ZTv0_n24_N7android12BpMemoryHeapD1Ev;
    _ZTv0_n24_N7android12ProcessStateD0Ev;
    _ZTv0_n24_N7android12ProcessStateD1Ev;
    _ZTv0_n24_N7android14IShellCallbackD0Ev;
    _ZTv0_n24_N7android14IShellCallbackD1Ev;
    _ZTv0_n24_N7android14MemoryHeapBaseD0Ev;
    _ZTv0_n24_N7android14MemoryHeapBaseD1Ev;
    _ZTv0_n24_N7android15IResultReceiverD0Ev;
    _ZTv0_n24_N7android15IResultReceiverD1Ev;
    _ZTv0_n24_N7android15IServiceManagerD0Ev;
    _ZTv0_n24_N7android15IServiceManagerD1Ev;
    _ZTv0_n24_N7android21IPermissionControllerD0Ev;
    _ZTv0_n24_N7android21IPermissionControllerD1Ev;
    _ZTv0_n24_N7android2os15IClientCallbackD0Ev;
    _ZTv0_n24_N7android2os15IClientCallbackD1Ev;
    _ZTv0_n24_N7android2os15IServiceManagerD0Ev;
    _ZTv0_n24_N7android2os15IServiceManagerD1Ev;
    _ZTv0_n24_N7android2os16IServiceCallbackD0Ev;
    _ZTv0_n24_N7android2os16IServiceCallbackD1Ev;
    _ZTv0_n24_N7android7BBinderD0Ev;
    _ZTv0_n24_N7android7BBinderD1Ev;
    _ZTv0_n24_N7android7content2pm21IPackageManagerNativeD0Ev;
    _ZTv0_n24_N7android7content2pm21IPackageManagerNativeD1Ev;
    _ZTv0_n24_N7android7content2pm22IPackageChangeObserverD0Ev;
    _ZTv0_n24_N7android7content2pm22IPackageChangeObserverD1Ev;
    _ZTv0_n24_N7android7IBinderD0Ev;
    _ZTv0_n24_N7android7IBinderD1Ev;
    _ZTv0_n24_N7android7IMemoryD0Ev;
    _ZTv0_n24_N7android7IMemoryD1Ev;
    _ZTv0_n24_N7android8BnMemoryD0Ev;
    _ZTv0_n24_N7android8BnMemoryD1Ev;
    _ZTv0_n24_N7android8BpBinderD0Ev;
    _ZTv0_n24_N7android8BpBinderD1Ev;
    _ZTv0_n24_N7android8BpMemoryD0Ev;
    _ZTv0_n24_N7android8BpMemoryD1Ev;
    _ZTv0_n24_N7android9BpRefBaseD0Ev;
    _ZTv0_n24_N7android9BpRefBaseD1Ev;
    _ZTv0_n24_N7android9HeapCacheD0Ev;
    _ZTv0_n24_N7android9HeapCacheD1Ev;
    _ZTv0_n24_N7android9RpcServerD0Ev;
    _ZTv0_n24_N7android9RpcServerD1Ev;
    _ZTv0_n32_N7android14MemoryHeapBaseD0Ev;
    _ZTv0_n32_N7android14MemoryHeapBaseD1Ev;
    _ZTv0_n32_N7android8BpBinder10onFirstRefEv;
    _ZTv0_n32_N7android9BpRefBase10onFirstRefEv;
    _ZTv0_n40_N7android8BpBinder15onLastStrongRefEPKv;
    _ZTv0_n40_N7android9BpRefBase15onLastStrongRefEPKv;
    _ZTv0_n48_N7android8BpBinder20onIncStrongAttemptedEjPKv;
    _ZTv0_n48_N7android9BpRefBase20onIncStrongAttemptedEjPKv;
    _ZTv0_n56_NK7android14MemoryHeapBase9getHeapIDEv;
    _ZTv0_n64_NK7android14MemoryHeapBase7getBaseEv;
    _ZTv0_n72_NK7android14MemoryHeapBase7getSizeEv;
    _ZTv0_n80_NK7android14MemoryHeapBase8getFlagsEv;
    _ZTv0_n88_NK7android14MemoryHeapBase9getOffsetEv;
    _ZTVN7android10AllocationE;
    _ZTVN7android10IInterfaceE;
    _ZTVN7android10MemoryBaseE;
    _ZTVN7android10PoolThreadE;
    _ZTVN7android10RpcSession13RpcConnectionE;
    _ZTVN7android10RpcSessionE;
    _ZTVN7android10TextOutputE;
    _ZTVN7android11IMemoryHeapE;
    _ZTVN7android12BnMemoryHeapE;
    _ZTVN7android12BpMemoryHeapE;
    _ZTVN7android12FdTextOutputE;
    _ZTVN7android12MemoryDealerE;
    _ZTVN7android12ProcessStateE;
    _ZTVN7android12SortedVectorINS_15PermissionCache5EntryEEE;
    _ZTVN7android12SortedVectorINS_16key_value_pair_tINS_2wpINS_7IBinderEEENS_9HeapCache11heap_info_tEEEEE;
    _ZTVN7android12SortedVectorINS_16key_value_pair_tIPKvNS_8BpBinder13ObjectManager7entry_tEEEEE;
    _ZTVN7android12SortedVectorINS_8String16EEE;
    _ZTVN7android13LogTextOutputE;
    _ZTVN7android14IShellCallbackE;
    _ZTVN7android14MemoryHeapBaseE;
    _ZTVN7android15BnShellCallbackE;
    _ZTVN7android15BpShellCallbackE;
    _ZTVN7android15IResultReceiverE;
    _ZTVN7android15IServiceManagerE;
    _ZTVN7android16BnResultReceiverE;
    _ZTVN7android16BpResultReceiverE;
    _ZTVN7android17InetSocketAddressE;
    _ZTVN7android17UnixSocketAddressE;
    _ZTVN7android18BufferedTextOutput11BufferStateE;
    _ZTVN7android18BufferedTextOutputE;
    _ZTVN7android18ServiceManagerShimE;
    _ZTVN7android18VsockSocketAddressE;
    _ZTVN7android21IPermissionControllerE;
    _ZTVN7android22BnPermissionControllerE;
    _ZTVN7android22BpPermissionControllerE;
    _ZTVN7android2os15IClientCallbackE;
    _ZTVN7android2os15IServiceManagerE;
    _ZTVN7android2os16BnClientCallbackE;
    _ZTVN7android2os16BnServiceManagerE;
    _ZTVN7android2os16BpClientCallbackE;
    _ZTVN7android2os16BpServiceManagerE;
    _ZTVN7android2os16IServiceCallbackE;
    _ZTVN7android2os16ParcelableHolderE;
    _ZTVN7android2os16ServiceDebugInfoE;
    _ZTVN7android2os17BnServiceCallbackE;
    _ZTVN7android2os17BpServiceCallbackE;
    _ZTVN7android2os17PersistableBundleE;
    _ZTVN7android2os20ParcelFileDescriptorE;
    _ZTVN7android6VectorIiEE;
    _ZTVN7android6VectorINS_12ProcessState12handle_entryEEE;
    _ZTVN7android6VectorINS_2spINS_18BufferedTextOutput11BufferStateEEEEE;
    _ZTVN7android6VectorINS_8BpBinder8ObituaryEEE;
    _ZTVN7android6VectorINS_8String16EEE;
    _ZTVN7android6VectorIPNS_7BBinderEEE;
    _ZTVN7android6VectorIPNS_7RefBase12weakref_typeEEE;
    _ZTVN7android6VectorIPNS_7RefBaseEEE;
    _ZTVN7android7BBinderE;
    _ZTVN7android7content2pm18PackageChangeEventE;
    _ZTVN7android7content2pm21IPackageManagerNativeE;
    _ZTVN7android7content2pm22BnPackageManagerNativeE;
    _ZTVN7android7content2pm22BpPackageManagerNativeE;
    _ZTVN7android7content2pm22IPackageChangeObserverE;
    _ZTVN7android7content2pm23BnPackageChangeObserverE;
    _ZTVN7android7content2pm23BpPackageChangeObserverE;
    _ZTVN7android7IBinderE;
    _ZTVN7android7IMemoryE;
    _ZTVN7android8BnMemoryE;
    _ZTVN7android8BpBinderE;
    _ZTVN7android8BpMemoryE;
    _ZTVN7android9BpRefBaseE;
    _ZTVN7android9HeapCacheE;
    _ZTVN7android9RpcServerE;
    _ZTvn8_n32_N7android14MemoryHeapBaseD0Ev;
    _ZTvn8_n32_N7android14MemoryHeapBaseD1Ev;
  local:
    *;
};
